

Microchip MPLAB XC8 Assembler V2.45 build 20230818022343 
                                                                                               Tue Apr 23 23:38:39 2024

Microchip MPLAB XC8 C Compiler v2.45 (Free license) build 20230818022343 Og1 
     1                           	processor	18F46K20
     2                           	fnconf	rparam,??,?,0
     3                           	pagewidth 120
     4                           	opt	flic
     5                           	psect	smallconst,global,reloc=2,class=SMALLCONST,delta=1,noexec
     6                           	psect	cinit,global,reloc=2,class=CODE,delta=1
     7                           	psect	bssCOMRAM,global,class=COMRAM,space=1,delta=1,lowdata,noexec
     8                           	psect	bssBANK0,global,class=BANK0,space=1,delta=1,lowdata,noexec
     9                           	psect	cstackCOMRAM,global,class=COMRAM,space=1,delta=1,lowdata,noexec
    10                           	psect	text0,global,reloc=2,class=CODE,delta=1
    11                           	psect	text1,global,reloc=2,class=CODE,delta=1
    12                           	psect	text2,global,reloc=2,class=CODE,delta=1
    13                           	psect	text3,global,reloc=2,class=CODE,delta=1
    14                           	psect	text4,global,reloc=2,class=CODE,delta=1
    15                           	psect	text5,global,reloc=2,class=CODE,delta=1
    16                           	psect	text6,global,reloc=2,class=CODE,delta=1
    17                           	psect	text7,global,reloc=2,class=CODE,delta=1
    18                           	psect	text8,global,reloc=2,class=CODE,delta=1
    19                           	psect	text9,global,reloc=2,class=CODE,delta=1
    20                           	psect	text10,global,reloc=2,class=CODE,delta=1,inline
    21                           	psect	text11,global,reloc=2,class=CODE,delta=1
    22                           	psect	text12,global,reloc=2,class=CODE,delta=1
    23                           	psect	text13,global,reloc=2,class=CODE,delta=1
    24                           	psect	text14,global,reloc=2,class=CODE,delta=1
    25                           	psect	text15,global,reloc=2,class=CODE,delta=1
    26                           	psect	text16,global,reloc=2,class=CODE,delta=1
    27                           	psect	text17,global,reloc=2,class=CODE,delta=1
    28                           	psect	text18,global,reloc=2,class=CODE,delta=1
    29                           	psect	text19,global,reloc=2,class=CODE,delta=1
    30                           	psect	text20,global,reloc=2,class=CODE,delta=1
    31                           	psect	text21,global,reloc=2,class=CODE,delta=1
    32                           	psect	text22,global,reloc=2,class=CODE,delta=1
    33                           	psect	text23,global,reloc=2,class=CODE,delta=1
    34                           	psect	text24,global,reloc=2,class=CODE,delta=1
    35                           	psect	text25,global,reloc=2,class=CODE,delta=1
    36                           	psect	text26,global,reloc=2,class=CODE,delta=1
    37                           	psect	text27,global,reloc=2,class=CODE,delta=1
    38                           	psect	text28,global,reloc=2,class=CODE,delta=1
    39                           	psect	text29,global,reloc=2,class=CODE,delta=1
    40                           	psect	text30,global,reloc=2,class=CODE,delta=1
    41                           	psect	text31,global,reloc=2,class=CODE,delta=1,inline
    42                           	psect	text32,global,reloc=2,class=CODE,delta=1,inline
    43                           	psect	text33,global,reloc=2,class=CODE,delta=1
    44                           	psect	text34,global,reloc=2,class=CODE,delta=1
    45                           	psect	text35,global,reloc=2,class=CODE,delta=1,inline
    46                           	psect	text36,global,reloc=2,class=CODE,delta=1
    47                           	psect	text37,global,reloc=2,class=CODE,delta=1,inline
    48                           	psect	text38,global,reloc=2,class=CODE,delta=1,inline
    49                           	psect	text39,global,reloc=2,class=CODE,delta=1,inline
    50                           	psect	text40,global,reloc=2,class=CODE,delta=1
    51                           	psect	text41,global,reloc=2,class=CODE,delta=1
    52                           	psect	text42,global,reloc=2,class=CODE,delta=1
    53                           	psect	text43,global,reloc=2,class=CODE,delta=1
    54                           	psect	text44,global,reloc=2,class=CODE,delta=1,group=3
    55                           	psect	text45,global,reloc=2,class=CODE,delta=1,group=1
    56                           	psect	text46,global,reloc=2,class=CODE,delta=1,group=1
    57                           	psect	text47,global,reloc=2,class=CODE,delta=1,group=3
    58                           	psect	text48,global,reloc=2,class=CODE,delta=1,group=3
    59                           	psect	text49,global,reloc=2,class=CODE,delta=1,group=3
    60                           	psect	text50,global,reloc=2,class=CODE,delta=1,group=2
    61                           	psect	text51,global,reloc=2,class=CODE,delta=1,group=2
    62                           	psect	text52,global,reloc=2,class=CODE,delta=1,group=3
    63                           	psect	text53,global,reloc=2,class=CODE,delta=1
    64                           	psect	text54,global,reloc=2,class=CODE,delta=1,group=3
    65                           	psect	text55,global,reloc=2,class=CODE,delta=1
    66                           	psect	text56,global,reloc=2,class=CODE,delta=1
    67                           	psect	intcode,global,reloc=2,class=CODE,delta=1
    68                           	psect	text58,global,reloc=2,class=CODE,delta=1
    69                           	psect	text59,global,reloc=2,class=CODE,delta=1,inline
    70                           	psect	text60,global,reloc=2,class=CODE,delta=1,inline
    71                           	psect	text61,global,reloc=2,class=CODE,delta=1
    72                           	psect	text62,global,reloc=2,class=CODE,delta=1
    73                           	psect	text63,global,reloc=2,class=CODE,delta=1
    74                           	psect	text64,global,reloc=2,class=CODE,delta=1
    75                           	psect	text65,global,reloc=2,class=CODE,delta=1
    76                           	psect	text66,global,reloc=2,class=CODE,delta=1
    77                           	psect	text67,global,reloc=2,class=CODE,delta=1
    78                           	psect	text68,global,reloc=2,class=CODE,delta=1
    79                           	psect	text69,global,reloc=2,class=CODE,delta=1
    80                           	psect	text70,global,reloc=2,class=CODE,delta=1
    81                           	psect	text71,global,reloc=2,class=CODE,delta=1
    82                           	psect	text72,global,reloc=2,class=CODE,delta=1
    83                           	psect	text73,global,reloc=2,class=CODE,delta=1
    84                           	psect	text74,global,reloc=2,class=CODE,delta=1
    85                           	psect	text75,global,reloc=2,class=CODE,delta=1
    86                           	psect	text76,global,reloc=2,class=CODE,delta=1
    87                           	psect	text77,global,reloc=2,class=CODE,delta=1,inline
    88                           	psect	text78,global,reloc=2,class=CODE,delta=1,inline
    89                           	psect	text79,global,reloc=2,class=CODE,delta=1,inline
    90                           	psect	text80,global,reloc=2,class=CODE,delta=1,inline
    91                           	psect	text81,global,reloc=2,class=CODE,delta=1,inline
    92                           	psect	text82,global,reloc=2,class=CODE,delta=1,inline
    93                           	psect	text83,global,reloc=2,class=CODE,delta=1,inline
    94                           	psect	text84,global,reloc=2,class=CODE,delta=1
    95                           	psect	text85,global,reloc=2,class=CODE,delta=1
    96                           	psect	text86,global,reloc=2,class=CODE,delta=1
    97                           	psect	text87,global,reloc=2,class=CODE,delta=1
    98                           	psect	text88,global,reloc=2,class=CODE,delta=1
    99                           	psect	text89,global,reloc=2,class=CODE,delta=1
   100                           	psect	text90,global,reloc=2,class=CODE,delta=1
   101                           	psect	text91,global,reloc=2,class=CODE,delta=1
   102                           	psect	text92,global,reloc=2,class=CODE,delta=1
   103                           	psect	text93,global,reloc=2,class=CODE,delta=1
   104                           	psect	text94,global,reloc=2,class=CODE,delta=1,inline
   105                           	psect	text95,global,reloc=2,class=CODE,delta=1,inline
   106                           	psect	intsave_regs,global,class=BIGRAM,space=1,delta=1,noexec
   107                           	psect	text96,global,reloc=2,class=CODE,delta=1,inline
   108                           	psect	rparam,global,class=COMRAM,space=1,delta=1,noexec
   109                           	psect	temp,global,ovrld,common,class=COMRAM,space=1,delta=1
   110                           	psect	config,global,abs,ovrld,class=CONFIG,space=4,delta=1,noexec
   111   000000                     
   112                           ; Generated 12/10/2023 GMT
   113                           ; 
   114                           ; Copyright © 2023, Microchip Technology Inc. and its subsidiaries ("Microchip")
   115                           ; All rights reserved.
   116                           ; 
   117                           ; This software is developed by Microchip Technology Inc. and its subsidiaries ("Microch
      +                          ip").
   118                           ; 
   119                           ; Redistribution and use in source and binary forms, with or without modification, are
   120                           ; permitted provided that the following conditions are met:
   121                           ; 
   122                           ;     1. Redistributions of source code must retain the above copyright notice, this lis
      +                          t of
   123                           ;        conditions and the following disclaimer.
   124                           ; 
   125                           ;     2. Redistributions in binary form must reproduce the above copyright notice, this 
      +                          list
   126                           ;        of conditions and the following disclaimer in the documentation and/or other
   127                           ;        materials provided with the distribution. Publication is not required when
   128                           ;        this file is used in an embedded application.
   129                           ; 
   130                           ;     3. Microchip's name may not be used to endorse or promote products derived from th
      +                          is
   131                           ;        software without specific prior written permission.
   132                           ; 
   133                           ; THIS SOFTWARE IS PROVIDED BY MICROCHIP "AS IS" AND ANY EXPRESS OR IMPLIED WARRANTIES,
   134                           ; INCLUDING, BUT NOT LIMITED TO, THE IMPLIED WARRANTIES OF MERCHANTABILITY AND FITNESS F
      +                          OR
   135                           ; PURPOSE ARE DISCLAIMED.  IN NO EVENT SHALL MICROCHIP BE LIABLE FOR ANY DIRECT, INDIREC
      +                          T,
   136                           ; INCIDENTAL, SPECIAL, EXEMPLARY, OR CONSEQUENTIAL DAMAGES (INCLUDING BUT NOT LIMITED TO
   137                           ; PROCUREMENT OF SUBSTITUTE GOODS OR SERVICES; LOSS OF USE, DATA OR PROFITS; OR BUSINESS
   138                           ; INTERRUPTION) HOWSOEVER CAUSED AND ON ANY THEORY OF LIABILITY, WHETHER IN CONTRACT, ST
      +                          RICT
   139                           ; LIABILITY, OR TORT (INCLUDING NEGLIGENCE OR OTHERWISE) ARISING IN ANY WAY OUT OF THE U
      +                          SE OF
   140                           ; THIS SOFTWARE, EVEN IF ADVISED OF THE POSSIBILITY OF SUCH DAMAGE.
   141                           ; 
   142                           ; 
   143                           ; Code-generator required, PIC18F46K20 Definitions
   144                           ; 
   145                           ; SFR Addresses
   146   000000                     
   147 ;; Function _INT0_DefaultInterruptHandler is unused but had its address taken
   148   000000                     
   149 ;; Function _INT1_DefaultInterruptHandler is unused but had its address taken
   150   000000                     
   151 ;; Function _INT2_DefaultInterruptHandler is unused but had its address taken
   152   000000                     
   153 ;; Function _EUSART_Deinitialize is unused but had its address taken
   154   000000                     
   155 ;; Function _EUSART_TransmitEnable is unused but had its address taken
   156   000000                     
   157 ;; Function _EUSART_TransmitDisable is unused but had its address taken
   158   000000                     
   159 ;; Function _EUSART_AutoBaudSet is unused but had its address taken
   160   000000                     
   161 ;; Function _EUSART_AutoBaudQuery is unused but had its address taken
   162   000000                     
   163 ;; Function _EUSART_IsRxReady is unused but had its address taken
   164   000000                     
   165 ;; Function _EUSART_IsTxDone is unused but had its address taken
   166   000000                     
   167 ;; Function _EUSART_ErrorGet is unused but had its address taken
   168   000000                     
   169 ;; Function _EUSART_Read is unused but had its address taken
   170   000000                     
   171 ;; Function _EUSART_DefaultFramingErrorCallback is unused but had its address taken
   172   000000                     
   173 ;; Function _EUSART_DefaultOverrunErrorCallback is unused but had its address taken
   174   000000                     
   175                           	psect	smallconst
   176   001000                     __psmallconst:
   177                           	callstack 0
   178   001000  00                 	db	0
   179   001001                     _UART1:
   180                           	callstack 0
   181   001001  74                 	db	low _EUSART_Initialize
   182   001002  1E                 	db	high _EUSART_Initialize
   183   001003  00                 	db	0
   184   001004  00                 	db	0
   185   001005  00                 	db	0
   186   001006  00                 	db	0
   187   001007  2A                 	db	low _EUSART_Write
   188   001008  23                 	db	high _EUSART_Write
   189   001009  00                 	db	0
   190   00100A  00                 	db	0
   191   00100B  AE                 	db	low _EUSART_IsTxReady
   192   00100C  20                 	db	high _EUSART_IsTxReady
   193   00100D  00                 	db	0
   194   00100E  00                 	db	0
   195   00100F  00                 	db	0
   196   001010  00                 	db	0
   197   001011  00                 	db	0
   198   001012  00                 	db	0
   199   001013  00                 	db	0
   200   001014  00                 	db	0
   201   001015  00                 	db	0
   202   001016  00                 	db	0
   203   001017  00                 	db	0
   204   001018  00                 	db	0
   205   001019  00                 	db	0
   206   00101A  00                 	db	0
   207   00101B  00                 	db	0
   208   00101C  00                 	db	0
   209   00101D  00                 	db	0
   210   00101E  00                 	db	0
   211   00101F  00                 	db	0
   212   001020  00                 	db	0
   213   001021  00                 	db	0
   214   001022  00                 	db	0
   215   001023  00                 	db	0
   216   001024  00                 	db	0
   217   001025  00                 	db	0
   218   001026  00                 	db	0
   219   001027  00                 	db	0
   220   001028  00                 	db	0
   221   001029  9E                 	db	low _EUSART_FramingErrorCallbackRegister
   222   00102A  21                 	db	high _EUSART_FramingErrorCallbackRegister
   223   00102B  82                 	db	low _EUSART_OverrunErrorCallbackRegister
   224   00102C  21                 	db	high _EUSART_OverrunErrorCallbackRegister
   225   00102D  00                 	db	0
   226   00102E  00                 	db	0
   227   00102F  00                 	db	0
   228   001030  00                 	db	0
   229   001031                     __end_of_UART1:
   230                           	callstack 0
   231   001031                     _i2c_fsmStateTable:
   232                           	callstack 0
   233   001031  E4                 	db	low _I2C_DO_IDLE
   234   001032  22                 	db	high _I2C_DO_IDLE
   235   001033  AE                 	db	low _I2C_DO_SEND_ADR_READ
   236   001034  22                 	db	high _I2C_DO_SEND_ADR_READ
   237   001035  BE                 	db	low _I2C_DO_SEND_ADR_WRITE
   238   001036  22                 	db	high _I2C_DO_SEND_ADR_WRITE
   239   001037  18                 	db	low _I2C_DO_TX
   240   001038  14                 	db	high _I2C_DO_TX
   241   001039  A6                 	db	low _I2C_DO_RX
   242   00103A  17                 	db	high _I2C_DO_RX
   243   00103B  D8                 	db	low _I2C_DO_RCEN
   244   00103C  22                 	db	high _I2C_DO_RCEN
   245   00103D  68                 	db	low _I2C_DO_TX_EMPTY
   246   00103E  19                 	db	high _I2C_DO_TX_EMPTY
   247   00103F  62                 	db	low _I2C_DO_SEND_RESTART_READ
   248   001040  23                 	db	high _I2C_DO_SEND_RESTART_READ
   249   001041  5A                 	db	low _I2C_DO_SEND_RESTART_WRITE
   250   001042  23                 	db	high _I2C_DO_SEND_RESTART_WRITE
   251   001043  52                 	db	low _I2C_DO_SEND_RESTART
   252   001044  23                 	db	high _I2C_DO_SEND_RESTART
   253   001045  4A                 	db	low _I2C_DO_SEND_STOP
   254   001046  23                 	db	high _I2C_DO_SEND_STOP
   255   001047  42                 	db	low _I2C_DO_RX_ACK
   256   001048  23                 	db	high _I2C_DO_RX_ACK
   257   001049  3A                 	db	low _I2C_DO_RX_NACK_STOP
   258   00104A  23                 	db	high _I2C_DO_RX_NACK_STOP
   259   00104B  32                 	db	low _I2C_DO_RX_NACK_RESTART
   260   00104C  23                 	db	high _I2C_DO_RX_NACK_RESTART
   261   00104D  CC                 	db	low _I2C_DO_RESET
   262   00104E  22                 	db	high _I2C_DO_RESET
   263   00104F  FC                 	db	low _I2C_DO_ADDRESS_NACK
   264   001050  1B                 	db	high _I2C_DO_ADDRESS_NACK
   265   001051                     __end_of_i2c_fsmStateTable:
   266                           	callstack 0
   267   000000                     _TXREG	set	4013
   268   000000                     _RCREG	set	4014
   269   000000                     _SPBRG	set	4015
   270   000000                     _TXSTA	set	4012
   271   000000                     _TRISC	set	3988
   272   000000                     _TRISB	set	3987
   273   000000                     _EEDATA	set	4008
   274   000000                     _EEADR	set	4009
   275   000000                     _EECON2	set	4007
   276   000000                     _BAUDCONbits	set	4024
   277   000000                     _TXSTAbits	set	4012
   278   000000                     _RCSTAbits	set	4011
   279   000000                     _TRISD	set	3989
   280   000000                     _SSPSTATbits	set	4039
   281   000000                     _SSPCON2bits	set	4037
   282   000000                     _SSPCON1bits	set	4038
   283   000000                     _WPUB	set	3964
   284   000000                     _ANSELH	set	3967
   285   000000                     _LATA	set	3977
   286   000000                     _TRISDbits	set	3989
   287   000000                     _PIE1bits	set	3997
   288   000000                     _PIR2bits	set	4001
   289   000000                     _SSPCON2	set	4037
   290   000000                     _SSPCON1	set	4038
   291   000000                     _SSPSTAT	set	4039
   292   000000                     _RCONbits	set	4048
   293   000000                     _OSCCON	set	4051
   294   000000                     _INTCONbits	set	4082
   295   000000                     _TABLAT	set	4085
   296   000000                     _TBLPTRL	set	4086
   297   000000                     _TBLPTRH	set	4087
   298   000000                     _TBLPTRU	set	4088
   299   000000                     _SSPBUF	set	4041
   300   000000                     _SSPADD	set	4040
   301   000000                     _EECON1bits	set	4006
   302   000000                     _PIE2bits	set	4000
   303   000000                     _PIR1bits	set	3998
   304   000000                     _RCSTA	set	4011
   305   000000                     _BAUDCON	set	4024
   306   000000                     _OSCTUNE	set	3995
   307   000000                     _TRISE	set	3990
   308   000000                     _TRISA	set	3986
   309   000000                     _LATE	set	3981
   310   000000                     _LATD	set	3980
   311   000000                     _LATC	set	3979
   312   000000                     _LATB	set	3978
   313   000000                     _IOCB	set	3965
   314   000000                     _INTCON3bits	set	4080
   315   000000                     _INTCON2bits	set	4081
   316   000000                     _SPBRGH	set	4016
   317   001051                     STR_3:
   318   001051  54                 	db	84	;'T'
   319   001052  65                 	db	101	;'e'
   320   001053  6D                 	db	109	;'m'
   321   001054  70                 	db	112	;'p'
   322   001055  65                 	db	101	;'e'
   323   001056  72                 	db	114	;'r'
   324   001057  61                 	db	97	;'a'
   325   001058  74                 	db	116	;'t'
   326   001059  75                 	db	117	;'u'
   327   00105A  72                 	db	114	;'r'
   328   00105B  65                 	db	101	;'e'
   329   00105C  20                 	db	32
   330   00105D  3A                 	db	58	;':'
   331   00105E  20                 	db	32
   332   00105F  00                 	db	0
   333   001060                     STR_4:
   334   001060  20                 	db	32
   335   001061  28                 	db	40
   336   001062  69                 	db	105	;'i'
   337   001063  6E                 	db	110	;'n'
   338   001064  20                 	db	32
   339   001065  68                 	db	104	;'h'
   340   001066  65                 	db	101	;'e'
   341   001067  78                 	db	120	;'x'
   342   001068  61                 	db	97	;'a'
   343   001069  29                 	db	41
   344   00106A  20                 	db	32
   345   00106B  00                 	db	0
   346   00106C                     STR_2:
   347   00106C  54                 	db	84	;'T'
   348   00106D  69                 	db	105	;'i'
   349   00106E  6D                 	db	109	;'m'
   350   00106F  65                 	db	101	;'e'
   351   001070  20                 	db	32
   352   001071  3A                 	db	58	;':'
   353   001072  20                 	db	32
   354   001073  00                 	db	0
   355   001074                     STR_1:
   356   001074  44                 	db	68	;'D'
   357   001075  61                 	db	97	;'a'
   358   001076  74                 	db	116	;'t'
   359   001077  65                 	db	101	;'e'
   360   001078  20                 	db	32
   361   001079  3A                 	db	58	;':'
   362   00107A  20                 	db	32
   363   00107B  00                 	db	0
   364   00107C  25                 	db	37
   365   00107D  64                 	db	100	;'d'
   366   00107E  00                 	db	0
   367   00107F                     STR_5:
   368   00107F  25                 	db	37
   369   001080  78                 	db	120	;'x'
   370   001081  00                 	db	0
   371   001082  00                 	db	0	; dummy byte at the end
   372   000000                     
   373                           ; #config settings
   374                           
   375                           	psect	cinit
   376   00211E                     __pcinit:
   377                           	callstack 0
   378   00211E                     start_initialization:
   379                           	callstack 0
   380   00211E                     __initialization:
   381                           	callstack 0
   382                           
   383                           ; Clear objects allocated to BANK0 (80 bytes)
   384   00211E  EE00  F060         	lfsr	0,__pbssBANK0
   385   002122  0E50               	movlw	80
   386   002124                     clear_0:
   387   002124  6AEE               	clrf	postinc0,c
   388   002126  06E8               	decf	wreg,f,c
   389   002128  E1FD               	bnz	clear_0
   390                           
   391                           ; Clear objects allocated to COMRAM (28 bytes)
   392   00212A  EE00  F041         	lfsr	0,__pbssCOMRAM
   393   00212E  0E1C               	movlw	28
   394   002130                     clear_1:
   395   002130  6AEE               	clrf	postinc0,c
   396   002132  06E8               	decf	wreg,f,c
   397   002134  E1FD               	bnz	clear_1
   398   002136                     end_of_initialization:
   399                           	callstack 0
   400   002136                     __end_of__initialization:
   401                           	callstack 0
   402   002136  905D               	bcf	int$flags,0,c	;clear compiler interrupt flag (level 1)
   403   002138  925D               	bcf	int$flags,1,c	;clear compiler interrupt flag (level 2)
   404   00213A  0100               	movlb	0
   405   00213C  EFB8  F00E         	goto	_main	;jump to C main() function
   406                           
   407                           	psect	bssCOMRAM
   408   000041                     __pbssCOMRAM:
   409                           	callstack 0
   410   000041                     _width:
   411                           	callstack 0
   412   000041                     	ds	2
   413   000043                     _prec:
   414                           	callstack 0
   415   000043                     	ds	2
   416   000045                     _EUSART_OverrunErrorHandler:
   417                           	callstack 0
   418   000045                     	ds	2
   419   000047                     _EUSART_FramingErrorHandler:
   420                           	callstack 0
   421   000047                     	ds	2
   422   000049                     _eusartRxLastError:
   423                           	callstack 0
   424   000049                     	ds	2
   425   00004B                     _INT2_InterruptHandler:
   426                           	callstack 0
   427   00004B                     	ds	2
   428   00004D                     _INT1_InterruptHandler:
   429                           	callstack 0
   430   00004D                     	ds	2
   431   00004F                     _INT0_InterruptHandler:
   432                           	callstack 0
   433   00004F                     	ds	2
   434   000051                     _MSSP_InterruptHandler:
   435                           	callstack 0
   436   000051                     	ds	2
   437   000053                     _flags:
   438                           	callstack 0
   439   000053                     	ds	1
   440   000054                     _decimal:
   441                           	callstack 0
   442   000054                     	ds	1
   443   000055                     _TC74_Temp:
   444                           	callstack 0
   445   000055                     	ds	1
   446   000056                     _received_data:
   447                           	callstack 0
   448   000056                     	ds	1
   449   000057                     _unlockKeyHigh:
   450                           	callstack 0
   451   000057                     	ds	1
   452   000058                     _unlockKeyLow:
   453                           	callstack 0
   454   000058                     	ds	1
   455   000059                     _hex_str:
   456                           	callstack 0
   457   000059                     	ds	2
   458   00005B                     _dummy_str:
   459                           	callstack 0
   460   00005B                     	ds	2
   461                           
   462                           	psect	bssBANK0
   463   000060                     __pbssBANK0:
   464                           	callstack 0
   465   000060                     _I2C_Status:
   466                           	callstack 0
   467   000060                     	ds	36
   468   000084                     _dbuf:
   469                           	callstack 0
   470   000084                     	ds	32
   471   0000A4                     _DS1307_obj:
   472                           	callstack 0
   473   0000A4                     	ds	6
   474   0000AA                     _DS1307_obj@DS1307$F91:
   475                           	callstack 0
   476   0000AA                     	ds	6
   477                           
   478                           	psect	cstackCOMRAM
   479   000001                     __pcstackCOMRAM:
   480                           	callstack 0
   481   000001                     ??_I2C_DO_RX:
   482   000001                     ??_I2C_DO_TX_EMPTY:
   483   000001                     ??_I2C_DO_ADDRESS_NACK:
   484   000001                     I2C_MasterSendTxData@data:
   485                           	callstack 0
   486   000001                     i2I2C_SetBuffer@buffer:
   487                           	callstack 0
   488   000001                     i2I2C_SetCallback@cb:
   489                           	callstack 0
   490                           
   491                           ; 2 bytes @ 0x0
   492   000001                     	ds	1
   493   000002                     ??_I2C_DO_TX:
   494                           
   495                           ; 1 bytes @ 0x1
   496   000002                     	ds	1
   497   000003                     i2I2C_SetBuffer@bufferSize:
   498                           	callstack 0
   499   000003                     i2I2C_SetCallback@ptr:
   500                           	callstack 0
   501                           
   502                           ; 2 bytes @ 0x2
   503   000003                     	ds	1
   504   000004                     ??_I2C_MasterFsm:
   505                           
   506                           ; 1 bytes @ 0x3
   507   000004                     	ds	1
   508   000005                     i2I2C_SetCallback@idx:
   509                           	callstack 0
   510                           
   511                           ; 1 bytes @ 0x4
   512   000005                     	ds	1
   513   000006                     i2I2C_SetDataCompleteCallback@cb:
   514                           	callstack 0
   515                           
   516                           ; 2 bytes @ 0x5
   517   000006                     	ds	1
   518   000007                     ??_INTERRUPT_InterruptManagerHigh:
   519                           
   520                           ; 1 bytes @ 0x6
   521   000007                     	ds	1
   522   000008                     i2I2C_SetDataCompleteCallback@ptr:
   523                           	callstack 0
   524                           
   525                           ; 2 bytes @ 0x7
   526   000008                     	ds	2
   527   00000A                     rd1RegCompleteHandler@ptr:
   528                           	callstack 0
   529   00000A                     rd2RegCompleteHandler@ptr:
   530                           	callstack 0
   531   00000A                     wr1RegCompleteHandler@ptr:
   532                           	callstack 0
   533   00000A                     wr2RegCompleteHandler@ptr:
   534                           	callstack 0
   535   00000A                     rdBlkRegCompleteHandler@ptr:
   536                           	callstack 0
   537                           
   538                           ; 2 bytes @ 0x9
   539   00000A                     	ds	2
   540   00000C                     ??_rdBlkRegCompleteHandler:
   541                           
   542                           ; 1 bytes @ 0xB
   543   00000C                     	ds	5
   544   000011                     ?_strlen:
   545                           	callstack 0
   546   000011                     ?___awdiv:
   547                           	callstack 0
   548   000011                     ?___awmod:
   549                           	callstack 0
   550   000011                     I2C_Close@returnValue:
   551                           	callstack 0
   552   000011                     I2C_MasterOperation@read:
   553                           	callstack 0
   554   000011                     _EUSART_IsTxReady$2097:
   555                           	callstack 0
   556   000011                     EUSART_Write@txData:
   557                           	callstack 0
   558   000011                     memset@dest:
   559                           	callstack 0
   560   000011                     I2C_SetBuffer@buffer:
   561                           	callstack 0
   562   000011                     I2C_SetInterruptHandler@InterruptHandler:
   563                           	callstack 0
   564   000011                     I2C_SetCallback@cb:
   565                           	callstack 0
   566   000011                     INT0_SetInterruptHandler@InterruptHandler:
   567                           	callstack 0
   568   000011                     INT1_SetInterruptHandler@InterruptHandler:
   569                           	callstack 0
   570   000011                     INT2_SetInterruptHandler@InterruptHandler:
   571                           	callstack 0
   572   000011                     EUSART_FramingErrorCallbackRegister@callbackHandler:
   573                           	callstack 0
   574   000011                     EUSART_OverrunErrorCallbackRegister@callbackHandler:
   575                           	callstack 0
   576   000011                     ___awdiv@dividend:
   577                           	callstack 0
   578   000011                     ___awmod@dividend:
   579                           	callstack 0
   580   000011                     fputc@c:
   581                           	callstack 0
   582   000011                     strlen@s:
   583                           	callstack 0
   584                           
   585                           ; 2 bytes @ 0x10
   586   000011                     	ds	1
   587   000012                     I2C_MasterOperation@returnValue:
   588                           	callstack 0
   589   000012                     memset@c:
   590                           	callstack 0
   591                           
   592                           ; 2 bytes @ 0x11
   593   000012                     	ds	1
   594   000013                     I2C_Open@address:
   595                           	callstack 0
   596   000013                     fputc@fp:
   597                           	callstack 0
   598   000013                     I2C_SetBuffer@bufferSize:
   599                           	callstack 0
   600   000013                     I2C_SetCallback@ptr:
   601                           	callstack 0
   602   000013                     ___awdiv@divisor:
   603                           	callstack 0
   604   000013                     ___awmod@divisor:
   605                           	callstack 0
   606   000013                     strlen@a:
   607                           	callstack 0
   608                           
   609                           ; 2 bytes @ 0x12
   610   000013                     	ds	1
   611   000014                     ??_fputc:
   612   000014                     I2C_Open@returnValue:
   613                           	callstack 0
   614   000014                     memset@n:
   615                           	callstack 0
   616                           
   617                           ; 2 bytes @ 0x13
   618   000014                     	ds	1
   619   000015                     I2C_SetCallback@idx:
   620                           	callstack 0
   621   000015                     ___awdiv@counter:
   622                           	callstack 0
   623   000015                     ___awmod@counter:
   624                           	callstack 0
   625   000015                     EUSART_Send_String@str:
   626                           	callstack 0
   627                           
   628                           ; 2 bytes @ 0x14
   629   000015                     	ds	1
   630   000016                     ___awdiv@sign:
   631                           	callstack 0
   632   000016                     ___awmod@sign:
   633                           	callstack 0
   634   000016                     memset@p:
   635                           	callstack 0
   636   000016                     I2C_SetDataCompleteCallback@cb:
   637                           	callstack 0
   638   000016                     I2C_SetAddressNackCallback@cb:
   639                           	callstack 0
   640                           
   641                           ; 2 bytes @ 0x15
   642   000016                     	ds	1
   643   000017                     ??_EUSART_Send_String:
   644   000017                     ?_abs:
   645                           	callstack 0
   646   000017                     ___awdiv@quotient:
   647                           	callstack 0
   648   000017                     abs@a:
   649                           	callstack 0
   650                           
   651                           ; 2 bytes @ 0x16
   652   000017                     	ds	1
   653   000018                     I2C_SetDataCompleteCallback@ptr:
   654                           	callstack 0
   655   000018                     I2C_SetAddressNackCallback@ptr:
   656                           	callstack 0
   657                           
   658                           ; 2 bytes @ 0x17
   659   000018                     	ds	1
   660   000019                     ??_abs:
   661   000019                     EUSART_Send_String@i:
   662                           	callstack 0
   663                           
   664                           ; 1 bytes @ 0x18
   665   000019                     	ds	1
   666   00001A                     I2C_Read1ByteRegister@reg:
   667                           	callstack 0
   668   00001A                     I2C_Write1Byte@reg:
   669                           	callstack 0
   670                           
   671                           ; 1 bytes @ 0x19
   672   00001A                     	ds	1
   673   00001B                     I2C_Read1ByteRegister@address:
   674                           	callstack 0
   675   00001B                     I2C_Write1Byte@address:
   676                           	callstack 0
   677   00001B                     vfpfcnvrt@fp:
   678                           	callstack 0
   679                           
   680                           ; 1 bytes @ 0x1A
   681   00001B                     	ds	1
   682   00001C                     I2C_Read1ByteRegister@returnValue:
   683                           	callstack 0
   684   00001C                     vfpfcnvrt@fmt:
   685                           	callstack 0
   686                           
   687                           ; 1 bytes @ 0x1B
   688   00001C                     	ds	1
   689   00001D                     Get_seconds@reg:
   690                           	callstack 0
   691   00001D                     Get_minutes@reg:
   692                           	callstack 0
   693   00001D                     Get_hours@reg:
   694                           	callstack 0
   695   00001D                     Get_years@reg:
   696                           	callstack 0
   697   00001D                     Get_months@reg:
   698                           	callstack 0
   699   00001D                     Get_days@reg:
   700                           	callstack 0
   701   00001D                     Read_Temperature@temp_data:
   702                           	callstack 0
   703   00001D                     vfpfcnvrt@ap:
   704                           	callstack 0
   705                           
   706                           ; 1 bytes @ 0x1C
   707   00001D                     	ds	1
   708   00001E                     ??_vfpfcnvrt:
   709   00001E                     Get_seconds@address:
   710                           	callstack 0
   711   00001E                     Get_minutes@address:
   712                           	callstack 0
   713   00001E                     Get_hours@address:
   714                           	callstack 0
   715   00001E                     Get_years@address:
   716                           	callstack 0
   717   00001E                     Get_months@address:
   718                           	callstack 0
   719   00001E                     Get_days@address:
   720                           	callstack 0
   721   00001E                     Read_Temperature@address:
   722                           	callstack 0
   723                           
   724                           ; 1 bytes @ 0x1D
   725   00001E                     	ds	1
   726   00001F                     Get_seconds@seconds:
   727                           	callstack 0
   728   00001F                     Get_minutes@minutes:
   729                           	callstack 0
   730   00001F                     Get_hours@hours:
   731                           	callstack 0
   732   00001F                     Get_years@years:
   733                           	callstack 0
   734   00001F                     Get_months@months:
   735                           	callstack 0
   736   00001F                     Get_days@days:
   737                           	callstack 0
   738   00001F                     Read_Temperature@temp:
   739                           	callstack 0
   740                           
   741                           ; 1 bytes @ 0x1E
   742   00001F                     	ds	1
   743   000020                     ?_Get_time_And_Date:
   744                           	callstack 0
   745   000020                     vfpfcnvrt@done:
   746                           	callstack 0
   747                           
   748                           ; 1 bytes @ 0x1F
   749   000020                     	ds	1
   750   000021                     vfpfcnvrt@x:
   751                           	callstack 0
   752                           
   753                           ; 1 bytes @ 0x20
   754   000021                     	ds	1
   755   000022                     vfpfcnvrt@cp:
   756                           	callstack 0
   757                           
   758                           ; 1 bytes @ 0x21
   759   000022                     	ds	1
   760   000023                     vfpfcnvrt@convarg:
   761                           	callstack 0
   762                           
   763                           ; 4 bytes @ 0x22
   764   000023                     	ds	3
   765   000026                     
   766                           ; 1 bytes @ 0x25
   767   000026                     	ds	1
   768   000027                     vfpfcnvrt@c:
   769                           	callstack 0
   770                           
   771                           ; 1 bytes @ 0x26
   772   000027                     	ds	1
   773   000028                     ?_vfprintf:
   774                           	callstack 0
   775   000028                     vfprintf@fp:
   776                           	callstack 0
   777                           
   778                           ; 1 bytes @ 0x27
   779   000028                     	ds	1
   780   000029                     vfprintf@fmt:
   781                           	callstack 0
   782                           
   783                           ; 1 bytes @ 0x28
   784   000029                     	ds	1
   785   00002A                     vfprintf@ap:
   786                           	callstack 0
   787                           
   788                           ; 1 bytes @ 0x29
   789   00002A                     	ds	1
   790   00002B                     vfprintf@cfmt:
   791                           	callstack 0
   792                           
   793                           ; 1 bytes @ 0x2A
   794   00002B                     	ds	1
   795   00002C                     ?_sprintf:
   796                           	callstack 0
   797   00002C                     sprintf@s:
   798                           	callstack 0
   799                           
   800                           ; 1 bytes @ 0x2B
   801   00002C                     	ds	1
   802   00002D                     sprintf@fmt:
   803                           	callstack 0
   804                           
   805                           ; 1 bytes @ 0x2C
   806   00002D                     	ds	3
   807   000030                     sprintf@ap:
   808                           	callstack 0
   809                           
   810                           ; 1 bytes @ 0x2F
   811   000030                     	ds	1
   812   000031                     sprintf@f:
   813                           	callstack 0
   814                           
   815                           ; 12 bytes @ 0x30
   816   000031                     	ds	12
   817   00003D                     convert_byte_to_str@str:
   818                           	callstack 0
   819                           
   820                           ; 1 bytes @ 0x3C
   821   00003D                     	ds	1
   822   00003E                     convert_byte_to_str@val:
   823                           	callstack 0
   824                           
   825                           ; 1 bytes @ 0x3D
   826   00003E                     	ds	1
   827   00003F                     ??_EUSART_Send_Date:
   828   00003F                     ??_EUSART_Send_Time:
   829   00003F                     
   830                           ; 1 bytes @ 0x3E
   831   00003F                     	ds	2
   832   000041                     
   833                           ; 1 bytes @ 0x40
   834 ;;
   835 ;;Main: autosize = 0, tempsize = 0, incstack = 0, save=0
   836 ;;
   837 ;; *************** function _main *****************
   838 ;; Defined at:
   839 ;;		line 60 in file "main.c"
   840 ;; Parameters:    Size  Location     Type
   841 ;;		None
   842 ;; Auto vars:     Size  Location     Type
   843 ;;		None
   844 ;; Return value:  Size  Location     Type
   845 ;;                  2  950[None  ] int 
   846 ;; Registers used:
   847 ;;		wreg, fsr0l, fsr0h, fsr1l, fsr1h, fsr2l, fsr2h, status,2, status,0, tblptrl, tblptrh, tblptru, prodl, prodh, cstack
   848 ;; Tracked objects:
   849 ;;		On entry : 0/0
   850 ;;		On exit  : 0/0
   851 ;;		Unchanged: 0/0
   852 ;; Data sizes:     COMRAM   BANK0   BANK1   BANK2   BANK3   BANK4   BANK5   BANK6   BANK7   BANK8   BANK9  BANK10  BANK1
      +1  BANK12  BANK13  BANK14  BANK15
   853 ;;      Params:         0       0       0       0       0       0       0       0       0       0       0       0       
      +0       0       0       0       0
   854 ;;      Locals:         0       0       0       0       0       0       0       0       0       0       0       0       
      +0       0       0       0       0
   855 ;;      Temps:          0       0       0       0       0       0       0       0       0       0       0       0       
      +0       0       0       0       0
   856 ;;      Totals:         0       0       0       0       0       0       0       0       0       0       0       0       
      +0       0       0       0       0
   857 ;;Total ram usage:        0 bytes
   858 ;; Hardware stack levels required when called: 14
   859 ;; This function calls:
   860 ;;		_EUSART_Send_Date
   861 ;;		_EUSART_Send_Temp
   862 ;;		_EUSART_Send_Time
   863 ;;		_Get_time_And_Date
   864 ;;		_I2C_Write1Byte
   865 ;;		_Read_Temperature
   866 ;;		_SYSTEM_Initialize
   867 ;; This function is called by:
   868 ;;		Startup code after reset
   869 ;; This function uses a non-reentrant model
   870 ;;
   871                           
   872                           	psect	text0
   873   001D70                     __ptext0:
   874                           	callstack 0
   875   001D70                     _main:
   876                           	callstack 17
   877   001D70                     
   878                           ;main.c: 62:     SYSTEM_Initialize();
   879   001D70  ECB1  F010         	call	_SYSTEM_Initialize	;wreg free
   880   001D74                     
   881                           ;main.c: 68:     (INTCONbits.GIEH = 1);
   882   001D74  8EF2               	bsf	242,7,c	;volatile
   883   001D76                     
   884                           ;main.c: 69:     (INTCONbits.GIEL = 1);
   885   001D76  8CF2               	bsf	242,6,c	;volatile
   886   001D78                     
   887                           ;main.c: 71:     (INTCONbits.PEIE = 1);
   888   001D78  8CF2               	bsf	242,6,c	;volatile
   889   001D7A                     l4128:
   890                           
   891                           ;main.c: 88:         DS1307_obj = Get_time_And_Date();
   892   001D7A  EC97  F00D         	call	_Get_time_And_Date	;wreg free
   893   001D7E  EE20  F0A4         	lfsr	2,_DS1307_obj
   894   001D82  0E05               	movlw	5
   895   001D84                     u2151:
   896   001D84  CFEB FFDB          	movff	plusw0,plusw2
   897   001D88  06E8               	decf	wreg,f,c
   898   001D8A  E2FC               	bc	u2151
   899   001D8C                     
   900                           ;main.c: 89:         TC74_Temp = Read_Temperature(0x9A);
   901   001D8C  0E9A               	movlw	154
   902   001D8E  ECDD  F010         	call	_Read_Temperature
   903   001D92  6E55               	movwf	_TC74_Temp^0,c
   904   001D94                     
   905                           ;main.c: 90:         EUSART_Send_Date();
   906   001D94  ECCA  F00A         	call	_EUSART_Send_Date	;wreg free
   907   001D98                     
   908                           ;main.c: 91:         EUSART_Send_Time();
   909   001D98  EC6E  F00A         	call	_EUSART_Send_Time	;wreg free
   910   001D9C                     
   911                           ;main.c: 92:         EUSART_Send_Temp();
   912   001D9C  EC61  F00D         	call	_EUSART_Send_Temp	;wreg free
   913   001DA0                     
   914                           ;main.c: 93:         I2C_Write1Byte(0X70, TC74_Temp);
   915   001DA0  C055  F01A         	movff	_TC74_Temp,I2C_Write1Byte@reg
   916   001DA4  0E70               	movlw	112
   917   001DA6  EC64  F00E         	call	_I2C_Write1Byte
   918   001DAA  EFBD  F00E         	goto	l4128
   919   001DAE  EF5B  F000         	goto	start
   920   001DB2                     __end_of_main:
   921                           	callstack 0
   922                           
   923 ;; *************** function _SYSTEM_Initialize *****************
   924 ;; Defined at:
   925 ;;		line 39 in file "mcc_generated_files/system/src/system.c"
   926 ;; Parameters:    Size  Location     Type
   927 ;;		None
   928 ;; Auto vars:     Size  Location     Type
   929 ;;		None
   930 ;; Return value:  Size  Location     Type
   931 ;;                  1    wreg      void 
   932 ;; Registers used:
   933 ;;		wreg, status,2, status,0, cstack
   934 ;; Tracked objects:
   935 ;;		On entry : 0/0
   936 ;;		On exit  : 0/0
   937 ;;		Unchanged: 0/0
   938 ;; Data sizes:     COMRAM   BANK0   BANK1   BANK2   BANK3   BANK4   BANK5   BANK6   BANK7   BANK8   BANK9  BANK10  BANK1
      +1  BANK12  BANK13  BANK14  BANK15
   939 ;;      Params:         0       0       0       0       0       0       0       0       0       0       0       0       
      +0       0       0       0       0
   940 ;;      Locals:         0       0       0       0       0       0       0       0       0       0       0       0       
      +0       0       0       0       0
   941 ;;      Temps:          0       0       0       0       0       0       0       0       0       0       0       0       
      +0       0       0       0       0
   942 ;;      Totals:         0       0       0       0       0       0       0       0       0       0       0       0       
      +0       0       0       0       0
   943 ;;Total ram usage:        0 bytes
   944 ;; Hardware stack levels used: 1
   945 ;; Hardware stack levels required when called: 9
   946 ;; This function calls:
   947 ;;		_CLOCK_Initialize
   948 ;;		_EUSART_Initialize
   949 ;;		_EUSART_ReceiveEnable
   950 ;;		_I2C_Initialize
   951 ;;		_INTERRUPT_Initialize
   952 ;;		_NVM_Initialize
   953 ;;		_PIN_MANAGER_Initialize
   954 ;; This function is called by:
   955 ;;		_main
   956 ;; This function uses a non-reentrant model
   957 ;;
   958                           
   959                           	psect	text1
   960   002162                     __ptext1:
   961                           	callstack 0
   962   002162                     _SYSTEM_Initialize:
   963                           	callstack 21
   964   002162                     
   965                           ;mcc_generated_files/system/src/system.c: 41:     CLOCK_Initialize();
   966   002162  EC87  F011         	call	_CLOCK_Initialize	;wreg free
   967                           
   968                           ;mcc_generated_files/system/src/system.c: 42:     PIN_MANAGER_Initialize();
   969   002166  ECA3  F00F         	call	_PIN_MANAGER_Initialize	;wreg free
   970   00216A                     
   971                           ;mcc_generated_files/system/src/system.c: 43:     EUSART_Initialize();
   972   00216A  EC3A  F00F         	call	_EUSART_Initialize	;wreg free
   973   00216E                     
   974                           ;mcc_generated_files/system/src/system.c: 44:     I2C_Initialize();
   975   00216E  EC0D  F011         	call	_I2C_Initialize	;wreg free
   976   002172                     
   977                           ;mcc_generated_files/system/src/system.c: 45:     NVM_Initialize();
   978   002172  ECB9  F011         	call	_NVM_Initialize	;wreg free
   979   002176                     
   980                           ;mcc_generated_files/system/src/system.c: 46:     TRISDbits.RD0 = 0;
   981   002176  9095               	bcf	149,0,c	;volatile
   982   002178                     
   983                           ;mcc_generated_files/system/src/system.c: 47:     EUSART_ReceiveEnable();
   984   002178  ECC7  F011         	call	_EUSART_ReceiveEnable	;wreg free
   985                           
   986                           ;mcc_generated_files/system/src/system.c: 48:     INTERRUPT_Initialize();
   987   00217C  EC55  F00F         	call	_INTERRUPT_Initialize	;wreg free
   988   002180  0012               	return		;funcret
   989   002182                     __end_of_SYSTEM_Initialize:
   990                           	callstack 0
   991                           
   992 ;; *************** function _PIN_MANAGER_Initialize *****************
   993 ;; Defined at:
   994 ;;		line 38 in file "mcc_generated_files/system/src/pins.c"
   995 ;; Parameters:    Size  Location     Type
   996 ;;		None
   997 ;; Auto vars:     Size  Location     Type
   998 ;;		None
   999 ;; Return value:  Size  Location     Type
  1000 ;;                  1    wreg      void 
  1001 ;; Registers used:
  1002 ;;		wreg, status,2
  1003 ;; Tracked objects:
  1004 ;;		On entry : 0/0
  1005 ;;		On exit  : 0/0
  1006 ;;		Unchanged: 0/0
  1007 ;; Data sizes:     COMRAM   BANK0   BANK1   BANK2   BANK3   BANK4   BANK5   BANK6   BANK7   BANK8   BANK9  BANK10  BANK1
      +1  BANK12  BANK13  BANK14  BANK15
  1008 ;;      Params:         0       0       0       0       0       0       0       0       0       0       0       0       
      +0       0       0       0       0
  1009 ;;      Locals:         0       0       0       0       0       0       0       0       0       0       0       0       
      +0       0       0       0       0
  1010 ;;      Temps:          0       0       0       0       0       0       0       0       0       0       0       0       
      +0       0       0       0       0
  1011 ;;      Totals:         0       0       0       0       0       0       0       0       0       0       0       0       
      +0       0       0       0       0
  1012 ;;Total ram usage:        0 bytes
  1013 ;; Hardware stack levels used: 1
  1014 ;; Hardware stack levels required when called: 7
  1015 ;; This function calls:
  1016 ;;		Nothing
  1017 ;; This function is called by:
  1018 ;;		_SYSTEM_Initialize
  1019 ;; This function uses a non-reentrant model
  1020 ;;
  1021                           
  1022                           	psect	text2
  1023   001F46                     __ptext2:
  1024                           	callstack 0
  1025   001F46                     _PIN_MANAGER_Initialize:
  1026                           	callstack 22
  1027   001F46                     
  1028                           ;mcc_generated_files/system/src/pins.c: 43:     LATA = 0x0;
  1029   001F46  0E00               	movlw	0
  1030   001F48  6E89               	movwf	137,c	;volatile
  1031                           
  1032                           ;mcc_generated_files/system/src/pins.c: 44:     LATB = 0x0;
  1033   001F4A  0E00               	movlw	0
  1034   001F4C  6E8A               	movwf	138,c	;volatile
  1035                           
  1036                           ;mcc_generated_files/system/src/pins.c: 45:     LATC = 0x0;
  1037   001F4E  0E00               	movlw	0
  1038   001F50  6E8B               	movwf	139,c	;volatile
  1039                           
  1040                           ;mcc_generated_files/system/src/pins.c: 46:     LATD = 0x0;
  1041   001F52  0E00               	movlw	0
  1042   001F54  6E8C               	movwf	140,c	;volatile
  1043                           
  1044                           ;mcc_generated_files/system/src/pins.c: 47:     LATE = 0x0;
  1045   001F56  0E00               	movlw	0
  1046   001F58  6E8D               	movwf	141,c	;volatile
  1047   001F5A                     
  1048                           ;mcc_generated_files/system/src/pins.c: 52:     TRISA = 0xFF;
  1049   001F5A  6892               	setf	146,c	;volatile
  1050   001F5C                     
  1051                           ;mcc_generated_files/system/src/pins.c: 53:     TRISB = 0xFF;
  1052   001F5C  6893               	setf	147,c	;volatile
  1053                           
  1054                           ;mcc_generated_files/system/src/pins.c: 54:     TRISC = 0xBF;
  1055   001F5E  0EBF               	movlw	191
  1056   001F60  6E94               	movwf	148,c	;volatile
  1057   001F62                     
  1058                           ;mcc_generated_files/system/src/pins.c: 55:     TRISD = 0xFF;
  1059   001F62  6895               	setf	149,c	;volatile
  1060                           
  1061                           ;mcc_generated_files/system/src/pins.c: 56:     TRISE = 0x7;
  1062   001F64  0E07               	movlw	7
  1063   001F66  6E96               	movwf	150,c	;volatile
  1064                           
  1065                           ;mcc_generated_files/system/src/pins.c: 61:     ANSELH = 0x1F;
  1066   001F68  0E1F               	movlw	31
  1067   001F6A  6E7F               	movwf	127,c	;volatile
  1068   001F6C                     
  1069                           ;mcc_generated_files/system/src/pins.c: 66:     WPUB = 0xFF;
  1070   001F6C  687C               	setf	124,c	;volatile
  1071                           
  1072                           ;mcc_generated_files/system/src/pins.c: 90:     IOCB = 0x0;
  1073   001F6E  0E00               	movlw	0
  1074   001F70  6E7D               	movwf	125,c	;volatile
  1075   001F72                     
  1076                           ;mcc_generated_files/system/src/pins.c: 94:     INTCONbits.RBIE = 1;
  1077   001F72  86F2               	bsf	242,3,c	;volatile
  1078   001F74  0012               	return		;funcret
  1079   001F76                     __end_of_PIN_MANAGER_Initialize:
  1080                           	callstack 0
  1081                           
  1082 ;; *************** function _NVM_Initialize *****************
  1083 ;; Defined at:
  1084 ;;		line 42 in file "mcc_generated_files/nvm/src/nvm.c"
  1085 ;; Parameters:    Size  Location     Type
  1086 ;;		None
  1087 ;; Auto vars:     Size  Location     Type
  1088 ;;		None
  1089 ;; Return value:  Size  Location     Type
  1090 ;;                  1    wreg      void 
  1091 ;; Registers used:
  1092 ;;		cstack
  1093 ;; Tracked objects:
  1094 ;;		On entry : 0/0
  1095 ;;		On exit  : 0/0
  1096 ;;		Unchanged: 0/0
  1097 ;; Data sizes:     COMRAM   BANK0   BANK1   BANK2   BANK3   BANK4   BANK5   BANK6   BANK7   BANK8   BANK9  BANK10  BANK1
      +1  BANK12  BANK13  BANK14  BANK15
  1098 ;;      Params:         0       0       0       0       0       0       0       0       0       0       0       0       
      +0       0       0       0       0
  1099 ;;      Locals:         0       0       0       0       0       0       0       0       0       0       0       0       
      +0       0       0       0       0
  1100 ;;      Temps:          0       0       0       0       0       0       0       0       0       0       0       0       
      +0       0       0       0       0
  1101 ;;      Totals:         0       0       0       0       0       0       0       0       0       0       0       0       
      +0       0       0       0       0
  1102 ;;Total ram usage:        0 bytes
  1103 ;; Hardware stack levels used: 1
  1104 ;; Hardware stack levels required when called: 8
  1105 ;; This function calls:
  1106 ;;		_NVM_StatusClear
  1107 ;; This function is called by:
  1108 ;;		_SYSTEM_Initialize
  1109 ;; This function uses a non-reentrant model
  1110 ;;
  1111                           
  1112                           	psect	text3
  1113   002372                     __ptext3:
  1114                           	callstack 0
  1115   002372                     _NVM_Initialize:
  1116                           	callstack 21
  1117   002372                     
  1118                           ;mcc_generated_files/nvm/src/nvm.c: 44:     NVM_StatusClear();
  1119   002372  ECC5  F011         	call	_NVM_StatusClear	;wreg free
  1120   002376  0012               	return		;funcret
  1121   002378                     __end_of_NVM_Initialize:
  1122                           	callstack 0
  1123                           
  1124 ;; *************** function _NVM_StatusClear *****************
  1125 ;; Defined at:
  1126 ;;		line 64 in file "mcc_generated_files/nvm/src/nvm.c"
  1127 ;; Parameters:    Size  Location     Type
  1128 ;;		None
  1129 ;; Auto vars:     Size  Location     Type
  1130 ;;		None
  1131 ;; Return value:  Size  Location     Type
  1132 ;;                  1    wreg      void 
  1133 ;; Registers used:
  1134 ;;		None
  1135 ;; Tracked objects:
  1136 ;;		On entry : 0/0
  1137 ;;		On exit  : 0/0
  1138 ;;		Unchanged: 0/0
  1139 ;; Data sizes:     COMRAM   BANK0   BANK1   BANK2   BANK3   BANK4   BANK5   BANK6   BANK7   BANK8   BANK9  BANK10  BANK1
      +1  BANK12  BANK13  BANK14  BANK15
  1140 ;;      Params:         0       0       0       0       0       0       0       0       0       0       0       0       
      +0       0       0       0       0
  1141 ;;      Locals:         0       0       0       0       0       0       0       0       0       0       0       0       
      +0       0       0       0       0
  1142 ;;      Temps:          0       0       0       0       0       0       0       0       0       0       0       0       
      +0       0       0       0       0
  1143 ;;      Totals:         0       0       0       0       0       0       0       0       0       0       0       0       
      +0       0       0       0       0
  1144 ;;Total ram usage:        0 bytes
  1145 ;; Hardware stack levels used: 1
  1146 ;; Hardware stack levels required when called: 7
  1147 ;; This function calls:
  1148 ;;		Nothing
  1149 ;; This function is called by:
  1150 ;;		_NVM_Initialize
  1151 ;; This function uses a non-reentrant model
  1152 ;;
  1153                           
  1154                           	psect	text4
  1155   00238A                     __ptext4:
  1156                           	callstack 0
  1157   00238A                     _NVM_StatusClear:
  1158                           	callstack 21
  1159   00238A                     
  1160                           ;mcc_generated_files/nvm/src/nvm.c: 66:     EECON1bits.WRERR = 0;
  1161   00238A  96A6               	bcf	166,3,c	;volsfr
  1162   00238C  0012               	return		;funcret
  1163   00238E                     __end_of_NVM_StatusClear:
  1164                           	callstack 0
  1165                           
  1166 ;; *************** function _INTERRUPT_Initialize *****************
  1167 ;; Defined at:
  1168 ;;		line 42 in file "mcc_generated_files/system/src/interrupt.c"
  1169 ;; Parameters:    Size  Location     Type
  1170 ;;		None
  1171 ;; Auto vars:     Size  Location     Type
  1172 ;;		None
  1173 ;; Return value:  Size  Location     Type
  1174 ;;                  1    wreg      void 
  1175 ;; Registers used:
  1176 ;;		wreg, status,2, status,0, cstack
  1177 ;; Tracked objects:
  1178 ;;		On entry : 0/0
  1179 ;;		On exit  : 0/0
  1180 ;;		Unchanged: 0/0
  1181 ;; Data sizes:     COMRAM   BANK0   BANK1   BANK2   BANK3   BANK4   BANK5   BANK6   BANK7   BANK8   BANK9  BANK10  BANK1
      +1  BANK12  BANK13  BANK14  BANK15
  1182 ;;      Params:         0       0       0       0       0       0       0       0       0       0       0       0       
      +0       0       0       0       0
  1183 ;;      Locals:         0       0       0       0       0       0       0       0       0       0       0       0       
      +0       0       0       0       0
  1184 ;;      Temps:          0       0       0       0       0       0       0       0       0       0       0       0       
      +0       0       0       0       0
  1185 ;;      Totals:         0       0       0       0       0       0       0       0       0       0       0       0       
      +0       0       0       0       0
  1186 ;;Total ram usage:        0 bytes
  1187 ;; Hardware stack levels used: 1
  1188 ;; Hardware stack levels required when called: 8
  1189 ;; This function calls:
  1190 ;;		_INT0_SetInterruptHandler
  1191 ;;		_INT1_SetInterruptHandler
  1192 ;;		_INT2_SetInterruptHandler
  1193 ;; This function is called by:
  1194 ;;		_SYSTEM_Initialize
  1195 ;; This function uses a non-reentrant model
  1196 ;;
  1197                           
  1198                           	psect	text5
  1199   001EAA                     __ptext5:
  1200                           	callstack 0
  1201   001EAA                     _INTERRUPT_Initialize:
  1202                           	callstack 21
  1203   001EAA                     
  1204                           ;mcc_generated_files/system/src/interrupt.c: 45:     RCONbits.IPEN = 1;
  1205   001EAA  8ED0               	bsf	208,7,c	;volatile
  1206                           
  1207                           ;mcc_generated_files/system/src/interrupt.c: 53:     (INTCONbits.INT0IF = 0);
  1208   001EAC  92F2               	bcf	242,1,c	;volatile
  1209                           
  1210                           ;mcc_generated_files/system/src/interrupt.c: 54:     (INTCON2bits.INTEDG0 = 1);
  1211   001EAE  8CF1               	bsf	241,6,c	;volatile
  1212   001EB0                     
  1213                           ;mcc_generated_files/system/src/interrupt.c: 56:     INT0_SetInterruptHandler(INT0_Defau
      +                          ltInterruptHandler);
  1214   001EB0  0E00               	movlw	0
  1215   001EB2  6E11               	movwf	INT0_SetInterruptHandler@InterruptHandler^0,c
  1216   001EB4  0E00               	movlw	0
  1217   001EB6  6E12               	movwf	(INT0_SetInterruptHandler@InterruptHandler+1)^0,c
  1218   001EB8  EC82  F011         	call	_INT0_SetInterruptHandler	;wreg free
  1219   001EBC                     
  1220                           ;mcc_generated_files/system/src/interrupt.c: 61:     (INTCON3bits.INT1IF = 0);
  1221   001EBC  90F0               	bcf	240,0,c	;volatile
  1222   001EBE                     
  1223                           ;mcc_generated_files/system/src/interrupt.c: 62:     (INTCON2bits.INTEDG1 = 1);
  1224   001EBE  8AF1               	bsf	241,5,c	;volatile
  1225                           
  1226                           ;mcc_generated_files/system/src/interrupt.c: 64:     INT1_SetInterruptHandler(INT1_Defau
      +                          ltInterruptHandler);
  1227   001EC0  0E00               	movlw	0
  1228   001EC2  6E11               	movwf	INT1_SetInterruptHandler@InterruptHandler^0,c
  1229   001EC4  0E00               	movlw	0
  1230   001EC6  6E12               	movwf	(INT1_SetInterruptHandler@InterruptHandler+1)^0,c
  1231   001EC8  EC7D  F011         	call	_INT1_SetInterruptHandler	;wreg free
  1232   001ECC                     
  1233                           ;mcc_generated_files/system/src/interrupt.c: 69:     (INTCON3bits.INT2IF = 0);
  1234   001ECC  92F0               	bcf	240,1,c	;volatile
  1235   001ECE                     
  1236                           ;mcc_generated_files/system/src/interrupt.c: 70:     (INTCON2bits.INTEDG2 = 1);
  1237   001ECE  88F1               	bsf	241,4,c	;volatile
  1238                           
  1239                           ;mcc_generated_files/system/src/interrupt.c: 72:     INT2_SetInterruptHandler(INT2_Defau
      +                          ltInterruptHandler);
  1240   001ED0  0E00               	movlw	0
  1241   001ED2  6E11               	movwf	INT2_SetInterruptHandler@InterruptHandler^0,c
  1242   001ED4  0E00               	movlw	0
  1243   001ED6  6E12               	movwf	(INT2_SetInterruptHandler@InterruptHandler+1)^0,c
  1244   001ED8  EC78  F011         	call	_INT2_SetInterruptHandler	;wreg free
  1245   001EDC  0012               	return		;funcret
  1246   001EDE                     __end_of_INTERRUPT_Initialize:
  1247                           	callstack 0
  1248                           
  1249 ;; *************** function _INT2_SetInterruptHandler *****************
  1250 ;; Defined at:
  1251 ;;		line 165 in file "mcc_generated_files/system/src/interrupt.c"
  1252 ;; Parameters:    Size  Location     Type
  1253 ;;  InterruptHan    2   16[COMRAM] PTR FTN()void 
  1254 ;;		 -> INT2_DefaultInterruptHandler(1), 
  1255 ;; Auto vars:     Size  Location     Type
  1256 ;;		None
  1257 ;; Return value:  Size  Location     Type
  1258 ;;                  1    wreg      void 
  1259 ;; Registers used:
  1260 ;;		wreg, status,2, status,0
  1261 ;; Tracked objects:
  1262 ;;		On entry : 0/0
  1263 ;;		On exit  : 0/0
  1264 ;;		Unchanged: 0/0
  1265 ;; Data sizes:     COMRAM   BANK0   BANK1   BANK2   BANK3   BANK4   BANK5   BANK6   BANK7   BANK8   BANK9  BANK10  BANK1
      +1  BANK12  BANK13  BANK14  BANK15
  1266 ;;      Params:         2       0       0       0       0       0       0       0       0       0       0       0       
      +0       0       0       0       0
  1267 ;;      Locals:         0       0       0       0       0       0       0       0       0       0       0       0       
      +0       0       0       0       0
  1268 ;;      Temps:          0       0       0       0       0       0       0       0       0       0       0       0       
      +0       0       0       0       0
  1269 ;;      Totals:         2       0       0       0       0       0       0       0       0       0       0       0       
      +0       0       0       0       0
  1270 ;;Total ram usage:        2 bytes
  1271 ;; Hardware stack levels used: 1
  1272 ;; Hardware stack levels required when called: 7
  1273 ;; This function calls:
  1274 ;;		Nothing
  1275 ;; This function is called by:
  1276 ;;		_INTERRUPT_Initialize
  1277 ;; This function uses a non-reentrant model
  1278 ;;
  1279                           
  1280                           	psect	text6
  1281   0022F0                     __ptext6:
  1282                           	callstack 0
  1283   0022F0                     _INT2_SetInterruptHandler:
  1284                           	callstack 21
  1285   0022F0                     
  1286                           ;mcc_generated_files/system/src/interrupt.c: 166:     INT2_InterruptHandler = InterruptH
      +                          andler;
  1287   0022F0  C011  F04B         	movff	INT2_SetInterruptHandler@InterruptHandler,_INT2_InterruptHandler
  1288   0022F4  C012  F04C         	movff	INT2_SetInterruptHandler@InterruptHandler+1,_INT2_InterruptHandler+1
  1289   0022F8  0012               	return		;funcret
  1290   0022FA                     __end_of_INT2_SetInterruptHandler:
  1291                           	callstack 0
  1292                           
  1293 ;; *************** function _INT1_SetInterruptHandler *****************
  1294 ;; Defined at:
  1295 ;;		line 139 in file "mcc_generated_files/system/src/interrupt.c"
  1296 ;; Parameters:    Size  Location     Type
  1297 ;;  InterruptHan    2   16[COMRAM] PTR FTN()void 
  1298 ;;		 -> INT1_DefaultInterruptHandler(1), 
  1299 ;; Auto vars:     Size  Location     Type
  1300 ;;		None
  1301 ;; Return value:  Size  Location     Type
  1302 ;;                  1    wreg      void 
  1303 ;; Registers used:
  1304 ;;		wreg, status,2, status,0
  1305 ;; Tracked objects:
  1306 ;;		On entry : 0/0
  1307 ;;		On exit  : 0/0
  1308 ;;		Unchanged: 0/0
  1309 ;; Data sizes:     COMRAM   BANK0   BANK1   BANK2   BANK3   BANK4   BANK5   BANK6   BANK7   BANK8   BANK9  BANK10  BANK1
      +1  BANK12  BANK13  BANK14  BANK15
  1310 ;;      Params:         2       0       0       0       0       0       0       0       0       0       0       0       
      +0       0       0       0       0
  1311 ;;      Locals:         0       0       0       0       0       0       0       0       0       0       0       0       
      +0       0       0       0       0
  1312 ;;      Temps:          0       0       0       0       0       0       0       0       0       0       0       0       
      +0       0       0       0       0
  1313 ;;      Totals:         2       0       0       0       0       0       0       0       0       0       0       0       
      +0       0       0       0       0
  1314 ;;Total ram usage:        2 bytes
  1315 ;; Hardware stack levels used: 1
  1316 ;; Hardware stack levels required when called: 7
  1317 ;; This function calls:
  1318 ;;		Nothing
  1319 ;; This function is called by:
  1320 ;;		_INTERRUPT_Initialize
  1321 ;; This function uses a non-reentrant model
  1322 ;;
  1323                           
  1324                           	psect	text7
  1325   0022FA                     __ptext7:
  1326                           	callstack 0
  1327   0022FA                     _INT1_SetInterruptHandler:
  1328                           	callstack 21
  1329   0022FA                     
  1330                           ;mcc_generated_files/system/src/interrupt.c: 140:     INT1_InterruptHandler = InterruptH
      +                          andler;
  1331   0022FA  C011  F04D         	movff	INT1_SetInterruptHandler@InterruptHandler,_INT1_InterruptHandler
  1332   0022FE  C012  F04E         	movff	INT1_SetInterruptHandler@InterruptHandler+1,_INT1_InterruptHandler+1
  1333   002302  0012               	return		;funcret
  1334   002304                     __end_of_INT1_SetInterruptHandler:
  1335                           	callstack 0
  1336                           
  1337 ;; *************** function _INT0_SetInterruptHandler *****************
  1338 ;; Defined at:
  1339 ;;		line 113 in file "mcc_generated_files/system/src/interrupt.c"
  1340 ;; Parameters:    Size  Location     Type
  1341 ;;  InterruptHan    2   16[COMRAM] PTR FTN()void 
  1342 ;;		 -> INT0_DefaultInterruptHandler(1), 
  1343 ;; Auto vars:     Size  Location     Type
  1344 ;;		None
  1345 ;; Return value:  Size  Location     Type
  1346 ;;                  1    wreg      void 
  1347 ;; Registers used:
  1348 ;;		wreg, status,2, status,0
  1349 ;; Tracked objects:
  1350 ;;		On entry : 0/0
  1351 ;;		On exit  : 0/0
  1352 ;;		Unchanged: 0/0
  1353 ;; Data sizes:     COMRAM   BANK0   BANK1   BANK2   BANK3   BANK4   BANK5   BANK6   BANK7   BANK8   BANK9  BANK10  BANK1
      +1  BANK12  BANK13  BANK14  BANK15
  1354 ;;      Params:         2       0       0       0       0       0       0       0       0       0       0       0       
      +0       0       0       0       0
  1355 ;;      Locals:         0       0       0       0       0       0       0       0       0       0       0       0       
      +0       0       0       0       0
  1356 ;;      Temps:          0       0       0       0       0       0       0       0       0       0       0       0       
      +0       0       0       0       0
  1357 ;;      Totals:         2       0       0       0       0       0       0       0       0       0       0       0       
      +0       0       0       0       0
  1358 ;;Total ram usage:        2 bytes
  1359 ;; Hardware stack levels used: 1
  1360 ;; Hardware stack levels required when called: 7
  1361 ;; This function calls:
  1362 ;;		Nothing
  1363 ;; This function is called by:
  1364 ;;		_INTERRUPT_Initialize
  1365 ;; This function uses a non-reentrant model
  1366 ;;
  1367                           
  1368                           	psect	text8
  1369   002304                     __ptext8:
  1370                           	callstack 0
  1371   002304                     _INT0_SetInterruptHandler:
  1372                           	callstack 21
  1373   002304                     
  1374                           ;mcc_generated_files/system/src/interrupt.c: 114:     INT0_InterruptHandler = InterruptH
      +                          andler;
  1375   002304  C011  F04F         	movff	INT0_SetInterruptHandler@InterruptHandler,_INT0_InterruptHandler
  1376   002308  C012  F050         	movff	INT0_SetInterruptHandler@InterruptHandler+1,_INT0_InterruptHandler+1
  1377   00230C  0012               	return		;funcret
  1378   00230E                     __end_of_INT0_SetInterruptHandler:
  1379                           	callstack 0
  1380                           
  1381 ;; *************** function _I2C_Initialize *****************
  1382 ;; Defined at:
  1383 ;;		line 167 in file "mcc_generated_files/i2c_client/src/i2c_master.c"
  1384 ;; Parameters:    Size  Location     Type
  1385 ;;		None
  1386 ;; Auto vars:     Size  Location     Type
  1387 ;;		None
  1388 ;; Return value:  Size  Location     Type
  1389 ;;                  1    wreg      void 
  1390 ;; Registers used:
  1391 ;;		wreg, status,2
  1392 ;; Tracked objects:
  1393 ;;		On entry : 0/0
  1394 ;;		On exit  : 0/0
  1395 ;;		Unchanged: 0/0
  1396 ;; Data sizes:     COMRAM   BANK0   BANK1   BANK2   BANK3   BANK4   BANK5   BANK6   BANK7   BANK8   BANK9  BANK10  BANK1
      +1  BANK12  BANK13  BANK14  BANK15
  1397 ;;      Params:         0       0       0       0       0       0       0       0       0       0       0       0       
      +0       0       0       0       0
  1398 ;;      Locals:         0       0       0       0       0       0       0       0       0       0       0       0       
      +0       0       0       0       0
  1399 ;;      Temps:          0       0       0       0       0       0       0       0       0       0       0       0       
      +0       0       0       0       0
  1400 ;;      Totals:         0       0       0       0       0       0       0       0       0       0       0       0       
      +0       0       0       0       0
  1401 ;;Total ram usage:        0 bytes
  1402 ;; Hardware stack levels used: 1
  1403 ;; Hardware stack levels required when called: 7
  1404 ;; This function calls:
  1405 ;;		Nothing
  1406 ;; This function is called by:
  1407 ;;		_SYSTEM_Initialize
  1408 ;; This function uses a non-reentrant model
  1409 ;;
  1410                           
  1411                           	psect	text9
  1412   00221A                     __ptext9:
  1413                           	callstack 0
  1414   00221A                     _I2C_Initialize:
  1415                           	callstack 22
  1416   00221A                     
  1417                           ;mcc_generated_files/i2c_client/src/i2c_master.c: 169:     SSPSTAT = 0x80;
  1418   00221A  0E80               	movlw	128
  1419   00221C  6EC7               	movwf	199,c	;volatile
  1420                           
  1421                           ;mcc_generated_files/i2c_client/src/i2c_master.c: 170:     SSPCON1 = 0x08;
  1422   00221E  0E08               	movlw	8
  1423   002220  6EC6               	movwf	198,c	;volatile
  1424                           
  1425                           ;mcc_generated_files/i2c_client/src/i2c_master.c: 171:     SSPCON2 = 0x00;
  1426   002222  0E00               	movlw	0
  1427   002224  6EC5               	movwf	197,c	;volatile
  1428                           
  1429                           ;mcc_generated_files/i2c_client/src/i2c_master.c: 172:     SSPADD = 0x27;
  1430   002226  0E27               	movlw	39
  1431   002228  6EC8               	movwf	200,c	;volatile
  1432   00222A                     
  1433                           ;mcc_generated_files/i2c_client/src/i2c_master.c: 173:     SSPCON1bits.SSPEN = 0;
  1434   00222A  9AC6               	bcf	198,5,c	;volatile
  1435   00222C  0012               	return		;funcret
  1436   00222E                     __end_of_I2C_Initialize:
  1437                           	callstack 0
  1438                           
  1439 ;; *************** function _EUSART_ReceiveEnable *****************
  1440 ;; Defined at:
  1441 ;;		line 146 in file "mcc_generated_files/uart/src/eusart.c"
  1442 ;; Parameters:    Size  Location     Type
  1443 ;;		None
  1444 ;; Auto vars:     Size  Location     Type
  1445 ;;		None
  1446 ;; Return value:  Size  Location     Type
  1447 ;;                  1    wreg      void 
  1448 ;; Registers used:
  1449 ;;		None
  1450 ;; Tracked objects:
  1451 ;;		On entry : 0/0
  1452 ;;		On exit  : 0/0
  1453 ;;		Unchanged: 0/0
  1454 ;; Data sizes:     COMRAM   BANK0   BANK1   BANK2   BANK3   BANK4   BANK5   BANK6   BANK7   BANK8   BANK9  BANK10  BANK1
      +1  BANK12  BANK13  BANK14  BANK15
  1455 ;;      Params:         0       0       0       0       0       0       0       0       0       0       0       0       
      +0       0       0       0       0
  1456 ;;      Locals:         0       0       0       0       0       0       0       0       0       0       0       0       
      +0       0       0       0       0
  1457 ;;      Temps:          0       0       0       0       0       0       0       0       0       0       0       0       
      +0       0       0       0       0
  1458 ;;      Totals:         0       0       0       0       0       0       0       0       0       0       0       0       
      +0       0       0       0       0
  1459 ;;Total ram usage:        0 bytes
  1460 ;; Hardware stack levels used: 1
  1461 ;; Hardware stack levels required when called: 7
  1462 ;; This function calls:
  1463 ;;		Nothing
  1464 ;; This function is called by:
  1465 ;;		_SYSTEM_Initialize
  1466 ;; This function uses a non-reentrant model
  1467 ;;
  1468                           
  1469                           	psect	text10
  1470   00238E                     __ptext10:
  1471                           	callstack 0
  1472   00238E                     _EUSART_ReceiveEnable:
  1473                           	callstack 22
  1474   00238E                     
  1475                           ;mcc_generated_files/uart/src/eusart.c: 148:     RCSTAbits.CREN = 1;
  1476   00238E  88AB               	bsf	171,4,c	;volatile
  1477   002390  0012               	return		;funcret
  1478   002392                     __end_of_EUSART_ReceiveEnable:
  1479                           	callstack 0
  1480                           
  1481 ;; *************** function _EUSART_Initialize *****************
  1482 ;; Defined at:
  1483 ;;		line 94 in file "mcc_generated_files/uart/src/eusart.c"
  1484 ;; Parameters:    Size  Location     Type
  1485 ;;		None
  1486 ;; Auto vars:     Size  Location     Type
  1487 ;;		None
  1488 ;; Return value:  Size  Location     Type
  1489 ;;                  1    wreg      void 
  1490 ;; Registers used:
  1491 ;;		wreg, status,2, status,0, cstack
  1492 ;; Tracked objects:
  1493 ;;		On entry : 0/0
  1494 ;;		On exit  : 0/0
  1495 ;;		Unchanged: 0/0
  1496 ;; Data sizes:     COMRAM   BANK0   BANK1   BANK2   BANK3   BANK4   BANK5   BANK6   BANK7   BANK8   BANK9  BANK10  BANK1
      +1  BANK12  BANK13  BANK14  BANK15
  1497 ;;      Params:         0       0       0       0       0       0       0       0       0       0       0       0       
      +0       0       0       0       0
  1498 ;;      Locals:         0       0       0       0       0       0       0       0       0       0       0       0       
      +0       0       0       0       0
  1499 ;;      Temps:          0       0       0       0       0       0       0       0       0       0       0       0       
      +0       0       0       0       0
  1500 ;;      Totals:         0       0       0       0       0       0       0       0       0       0       0       0       
      +0       0       0       0       0
  1501 ;;Total ram usage:        0 bytes
  1502 ;; Hardware stack levels used: 1
  1503 ;; Hardware stack levels required when called: 8
  1504 ;; This function calls:
  1505 ;;		_EUSART_FramingErrorCallbackRegister
  1506 ;;		_EUSART_OverrunErrorCallbackRegister
  1507 ;; This function is called by:
  1508 ;;		_SYSTEM_Initialize
  1509 ;; This function uses a non-reentrant model
  1510 ;;
  1511                           
  1512                           	psect	text11
  1513   001E74                     __ptext11:
  1514                           	callstack 0
  1515   001E74                     _EUSART_Initialize:
  1516                           	callstack 21
  1517   001E74                     
  1518                           ;mcc_generated_files/uart/src/eusart.c: 99:     BAUDCON = 0x48;
  1519   001E74  0E48               	movlw	72
  1520   001E76  6EB8               	movwf	184,c	;volatile
  1521                           
  1522                           ;mcc_generated_files/uart/src/eusart.c: 101:     RCSTA = 0x90;
  1523   001E78  0E90               	movlw	144
  1524   001E7A  6EAB               	movwf	171,c	;volatile
  1525                           
  1526                           ;mcc_generated_files/uart/src/eusart.c: 103:     TXSTA = 0x26;
  1527   001E7C  0E26               	movlw	38
  1528   001E7E  6EAC               	movwf	172,c	;volatile
  1529                           
  1530                           ;mcc_generated_files/uart/src/eusart.c: 105:     SPBRG = 0xCF;
  1531   001E80  0ECF               	movlw	207
  1532   001E82  6EAF               	movwf	175,c	;volatile
  1533                           
  1534                           ;mcc_generated_files/uart/src/eusart.c: 107:     SPBRGH = 0x0;
  1535   001E84  0E00               	movlw	0
  1536   001E86  6EB0               	movwf	176,c	;volatile
  1537   001E88                     
  1538                           ;mcc_generated_files/uart/src/eusart.c: 109:     EUSART_FramingErrorCallbackRegister(EUS
      +                          ART_DefaultFramingErrorCallback);
  1539   001E88  0E00               	movlw	0
  1540   001E8A  6E11               	movwf	EUSART_FramingErrorCallbackRegister@callbackHandler^0,c
  1541   001E8C  0E00               	movlw	0
  1542   001E8E  6E12               	movwf	(EUSART_FramingErrorCallbackRegister@callbackHandler+1)^0,c
  1543   001E90  ECCF  F010         	call	_EUSART_FramingErrorCallbackRegister	;wreg free
  1544   001E94                     
  1545                           ;mcc_generated_files/uart/src/eusart.c: 110:     EUSART_OverrunErrorCallbackRegister(EUS
      +                          ART_DefaultOverrunErrorCallback);
  1546   001E94  0E00               	movlw	0
  1547   001E96  6E11               	movwf	EUSART_OverrunErrorCallbackRegister@callbackHandler^0,c
  1548   001E98  0E00               	movlw	0
  1549   001E9A  6E12               	movwf	(EUSART_OverrunErrorCallbackRegister@callbackHandler+1)^0,c
  1550   001E9C  ECC1  F010         	call	_EUSART_OverrunErrorCallbackRegister	;wreg free
  1551                           
  1552                           ;mcc_generated_files/uart/src/eusart.c: 111:     eusartRxLastError.status = 0;
  1553   001EA0  0E00               	movlw	0
  1554   001EA2  6E4A               	movwf	(_eusartRxLastError+1)^0,c	;volatile
  1555   001EA4  0E00               	movlw	0
  1556   001EA6  6E49               	movwf	_eusartRxLastError^0,c	;volatile
  1557   001EA8  0012               	return		;funcret
  1558   001EAA                     __end_of_EUSART_Initialize:
  1559                           	callstack 0
  1560                           
  1561 ;; *************** function _EUSART_OverrunErrorCallbackRegister *****************
  1562 ;; Defined at:
  1563 ;;		line 278 in file "mcc_generated_files/uart/src/eusart.c"
  1564 ;; Parameters:    Size  Location     Type
  1565 ;;  callbackHand    2   16[COMRAM] PTR FTN()void 
  1566 ;;		 -> EUSART_DefaultOverrunErrorCallback(1), 
  1567 ;; Auto vars:     Size  Location     Type
  1568 ;;		None
  1569 ;; Return value:  Size  Location     Type
  1570 ;;                  1    wreg      void 
  1571 ;; Registers used:
  1572 ;;		wreg, status,2, status,0
  1573 ;; Tracked objects:
  1574 ;;		On entry : 0/0
  1575 ;;		On exit  : 0/0
  1576 ;;		Unchanged: 0/0
  1577 ;; Data sizes:     COMRAM   BANK0   BANK1   BANK2   BANK3   BANK4   BANK5   BANK6   BANK7   BANK8   BANK9  BANK10  BANK1
      +1  BANK12  BANK13  BANK14  BANK15
  1578 ;;      Params:         2       0       0       0       0       0       0       0       0       0       0       0       
      +0       0       0       0       0
  1579 ;;      Locals:         0       0       0       0       0       0       0       0       0       0       0       0       
      +0       0       0       0       0
  1580 ;;      Temps:          0       0       0       0       0       0       0       0       0       0       0       0       
      +0       0       0       0       0
  1581 ;;      Totals:         2       0       0       0       0       0       0       0       0       0       0       0       
      +0       0       0       0       0
  1582 ;;Total ram usage:        2 bytes
  1583 ;; Hardware stack levels used: 1
  1584 ;; Hardware stack levels required when called: 7
  1585 ;; This function calls:
  1586 ;;		Nothing
  1587 ;; This function is called by:
  1588 ;;		_EUSART_Initialize
  1589 ;; This function uses a non-reentrant model
  1590 ;;
  1591                           
  1592                           	psect	text12
  1593   002182                     __ptext12:
  1594                           	callstack 0
  1595   002182                     _EUSART_OverrunErrorCallbackRegister:
  1596                           	callstack 21
  1597   002182                     
  1598                           ;mcc_generated_files/uart/src/eusart.c: 278: void EUSART_OverrunErrorCallbackRegister(vo
      +                          id (* callbackHandler)(void));mcc_generated_files/uart/src/eusart.c: 279: {;mcc_generate
      +                          d_files/uart/src/eusart.c: 280:     if(((void*)0) != callbackHandler)
  1599   002182  5011               	movf	EUSART_OverrunErrorCallbackRegister@callbackHandler^0,w,c
  1600   002184  1012               	iorwf	(EUSART_OverrunErrorCallbackRegister@callbackHandler+1)^0,w,c
  1601   002186  B4D8               	btfsc	status,2,c
  1602   002188  EFC8  F010         	goto	u1731
  1603   00218C  EFCA  F010         	goto	u1730
  1604   002190                     u1731:
  1605   002190  EFCE  F010         	goto	l902
  1606   002194                     u1730:
  1607   002194                     
  1608                           ;mcc_generated_files/uart/src/eusart.c: 281:     {;mcc_generated_files/uart/src/eusart.c
      +                          : 282:         EUSART_OverrunErrorHandler = callbackHandler;
  1609   002194  C011  F045         	movff	EUSART_OverrunErrorCallbackRegister@callbackHandler,_EUSART_OverrunErrorHandler
  1610   002198  C012  F046         	movff	EUSART_OverrunErrorCallbackRegister@callbackHandler+1,_EUSART_OverrunErrorHandler
      +                          +1
  1611   00219C                     l902:
  1612   00219C  0012               	return		;funcret
  1613   00219E                     __end_of_EUSART_OverrunErrorCallbackRegister:
  1614                           	callstack 0
  1615                           
  1616 ;; *************** function _EUSART_FramingErrorCallbackRegister *****************
  1617 ;; Defined at:
  1618 ;;		line 270 in file "mcc_generated_files/uart/src/eusart.c"
  1619 ;; Parameters:    Size  Location     Type
  1620 ;;  callbackHand    2   16[COMRAM] PTR FTN()void 
  1621 ;;		 -> EUSART_DefaultFramingErrorCallback(1), 
  1622 ;; Auto vars:     Size  Location     Type
  1623 ;;		None
  1624 ;; Return value:  Size  Location     Type
  1625 ;;                  1    wreg      void 
  1626 ;; Registers used:
  1627 ;;		wreg, status,2, status,0
  1628 ;; Tracked objects:
  1629 ;;		On entry : 0/0
  1630 ;;		On exit  : 0/0
  1631 ;;		Unchanged: 0/0
  1632 ;; Data sizes:     COMRAM   BANK0   BANK1   BANK2   BANK3   BANK4   BANK5   BANK6   BANK7   BANK8   BANK9  BANK10  BANK1
      +1  BANK12  BANK13  BANK14  BANK15
  1633 ;;      Params:         2       0       0       0       0       0       0       0       0       0       0       0       
      +0       0       0       0       0
  1634 ;;      Locals:         0       0       0       0       0       0       0       0       0       0       0       0       
      +0       0       0       0       0
  1635 ;;      Temps:          0       0       0       0       0       0       0       0       0       0       0       0       
      +0       0       0       0       0
  1636 ;;      Totals:         2       0       0       0       0       0       0       0       0       0       0       0       
      +0       0       0       0       0
  1637 ;;Total ram usage:        2 bytes
  1638 ;; Hardware stack levels used: 1
  1639 ;; Hardware stack levels required when called: 7
  1640 ;; This function calls:
  1641 ;;		Nothing
  1642 ;; This function is called by:
  1643 ;;		_EUSART_Initialize
  1644 ;; This function uses a non-reentrant model
  1645 ;;
  1646                           
  1647                           	psect	text13
  1648   00219E                     __ptext13:
  1649                           	callstack 0
  1650   00219E                     _EUSART_FramingErrorCallbackRegister:
  1651                           	callstack 21
  1652   00219E                     
  1653                           ;mcc_generated_files/uart/src/eusart.c: 270: void EUSART_FramingErrorCallbackRegister(vo
      +                          id (* callbackHandler)(void));mcc_generated_files/uart/src/eusart.c: 271: {;mcc_generate
      +                          d_files/uart/src/eusart.c: 272:     if(((void*)0) != callbackHandler)
  1654   00219E  5011               	movf	EUSART_FramingErrorCallbackRegister@callbackHandler^0,w,c
  1655   0021A0  1012               	iorwf	(EUSART_FramingErrorCallbackRegister@callbackHandler+1)^0,w,c
  1656   0021A2  B4D8               	btfsc	status,2,c
  1657   0021A4  EFD6  F010         	goto	u1721
  1658   0021A8  EFD8  F010         	goto	u1720
  1659   0021AC                     u1721:
  1660   0021AC  EFDC  F010         	goto	l898
  1661   0021B0                     u1720:
  1662   0021B0                     
  1663                           ;mcc_generated_files/uart/src/eusart.c: 273:     {;mcc_generated_files/uart/src/eusart.c
      +                          : 274:         EUSART_FramingErrorHandler = callbackHandler;
  1664   0021B0  C011  F047         	movff	EUSART_FramingErrorCallbackRegister@callbackHandler,_EUSART_FramingErrorHandler
  1665   0021B4  C012  F048         	movff	EUSART_FramingErrorCallbackRegister@callbackHandler+1,_EUSART_FramingErrorHandler
      +                          +1
  1666   0021B8                     l898:
  1667   0021B8  0012               	return		;funcret
  1668   0021BA                     __end_of_EUSART_FramingErrorCallbackRegister:
  1669                           	callstack 0
  1670                           
  1671 ;; *************** function _CLOCK_Initialize *****************
  1672 ;; Defined at:
  1673 ;;		line 37 in file "mcc_generated_files/system/src/clock.c"
  1674 ;; Parameters:    Size  Location     Type
  1675 ;;		None
  1676 ;; Auto vars:     Size  Location     Type
  1677 ;;		None
  1678 ;; Return value:  Size  Location     Type
  1679 ;;                  1    wreg      void 
  1680 ;; Registers used:
  1681 ;;		wreg, status,2
  1682 ;; Tracked objects:
  1683 ;;		On entry : 0/0
  1684 ;;		On exit  : 0/0
  1685 ;;		Unchanged: 0/0
  1686 ;; Data sizes:     COMRAM   BANK0   BANK1   BANK2   BANK3   BANK4   BANK5   BANK6   BANK7   BANK8   BANK9  BANK10  BANK1
      +1  BANK12  BANK13  BANK14  BANK15
  1687 ;;      Params:         0       0       0       0       0       0       0       0       0       0       0       0       
      +0       0       0       0       0
  1688 ;;      Locals:         0       0       0       0       0       0       0       0       0       0       0       0       
      +0       0       0       0       0
  1689 ;;      Temps:          0       0       0       0       0       0       0       0       0       0       0       0       
      +0       0       0       0       0
  1690 ;;      Totals:         0       0       0       0       0       0       0       0       0       0       0       0       
      +0       0       0       0       0
  1691 ;;Total ram usage:        0 bytes
  1692 ;; Hardware stack levels used: 1
  1693 ;; Hardware stack levels required when called: 7
  1694 ;; This function calls:
  1695 ;;		Nothing
  1696 ;; This function is called by:
  1697 ;;		_SYSTEM_Initialize
  1698 ;; This function uses a non-reentrant model
  1699 ;;
  1700                           
  1701                           	psect	text14
  1702   00230E                     __ptext14:
  1703                           	callstack 0
  1704   00230E                     _CLOCK_Initialize:
  1705                           	callstack 22
  1706   00230E                     
  1707                           ;mcc_generated_files/system/src/clock.c: 41:     OSCCON = 0x30;
  1708   00230E  0E30               	movlw	48
  1709   002310  6ED3               	movwf	211,c	;volatile
  1710                           
  1711                           ;mcc_generated_files/system/src/clock.c: 43:     OSCTUNE = 0x0;
  1712   002312  0E00               	movlw	0
  1713   002314  6E9B               	movwf	155,c	;volatile
  1714   002316  0012               	return		;funcret
  1715   002318                     __end_of_CLOCK_Initialize:
  1716                           	callstack 0
  1717                           
  1718 ;; *************** function _Read_Temperature *****************
  1719 ;; Defined at:
  1720 ;;		line 10 in file "mcc_generated_files/TC74/TC74.c"
  1721 ;; Parameters:    Size  Location     Type
  1722 ;;  address         1    wreg     unsigned char 
  1723 ;; Auto vars:     Size  Location     Type
  1724 ;;  address         1   29[COMRAM] unsigned char 
  1725 ;;  temp            1   30[COMRAM] unsigned char 
  1726 ;;  temp_data       1   28[COMRAM] unsigned char 
  1727 ;; Return value:  Size  Location     Type
  1728 ;;                  1    wreg      unsigned char 
  1729 ;; Registers used:
  1730 ;;		wreg, fsr2l, fsr2h, status,2, status,0, prodl, prodh, cstack
  1731 ;; Tracked objects:
  1732 ;;		On entry : 0/0
  1733 ;;		On exit  : 0/0
  1734 ;;		Unchanged: 0/0
  1735 ;; Data sizes:     COMRAM   BANK0   BANK1   BANK2   BANK3   BANK4   BANK5   BANK6   BANK7   BANK8   BANK9  BANK10  BANK1
      +1  BANK12  BANK13  BANK14  BANK15
  1736 ;;      Params:         0       0       0       0       0       0       0       0       0       0       0       0       
      +0       0       0       0       0
  1737 ;;      Locals:         3       0       0       0       0       0       0       0       0       0       0       0       
      +0       0       0       0       0
  1738 ;;      Temps:          0       0       0       0       0       0       0       0       0       0       0       0       
      +0       0       0       0       0
  1739 ;;      Totals:         3       0       0       0       0       0       0       0       0       0       0       0       
      +0       0       0       0       0
  1740 ;;Total ram usage:        3 bytes
  1741 ;; Hardware stack levels used: 1
  1742 ;; Hardware stack levels required when called: 11
  1743 ;; This function calls:
  1744 ;;		_I2C_Read1ByteRegister
  1745 ;; This function is called by:
  1746 ;;		_main
  1747 ;; This function uses a non-reentrant model
  1748 ;;
  1749                           
  1750                           	psect	text15
  1751   0021BA                     __ptext15:
  1752                           	callstack 0
  1753   0021BA                     _Read_Temperature:
  1754                           	callstack 19
  1755                           
  1756                           ;incstack = 0
  1757                           ;Read_Temperature@address stored from wreg
  1758   0021BA  6E1E               	movwf	Read_Temperature@address^0,c
  1759   0021BC                     
  1760                           ;mcc_generated_files/TC74/TC74.c: 12:     uint8_t temp_data = 0;
  1761   0021BC  0E00               	movlw	0
  1762   0021BE  6E1D               	movwf	Read_Temperature@temp_data^0,c
  1763   0021C0                     
  1764                           ;mcc_generated_files/TC74/TC74.c: 13:     temp = I2C_Read1ByteRegister(address, 0x00);
  1765   0021C0  0E00               	movlw	0
  1766   0021C2  6E1A               	movwf	I2C_Read1ByteRegister@reg^0,c
  1767   0021C4  501E               	movf	Read_Temperature@address^0,w,c
  1768   0021C6  ECF2  F00C         	call	_I2C_Read1ByteRegister
  1769   0021CA  6E1F               	movwf	Read_Temperature@temp^0,c
  1770   0021CC  50C9               	movf	201,w,c	;volatile
  1771   0021CE                     
  1772                           ;mcc_generated_files/TC74/TC74.c: 15:     return temp;
  1773   0021CE  501F               	movf	Read_Temperature@temp^0,w,c
  1774   0021D0  0012               	return		;funcret
  1775   0021D2                     __end_of_Read_Temperature:
  1776                           	callstack 0
  1777                           
  1778 ;; *************** function _I2C_Write1Byte *****************
  1779 ;; Defined at:
  1780 ;;		line 101 in file "mcc_generated_files/i2c_client/src/i2c_master_example.c"
  1781 ;; Parameters:    Size  Location     Type
  1782 ;;  address         1    wreg     unsigned char 
  1783 ;;  reg             1   25[COMRAM] unsigned char 
  1784 ;; Auto vars:     Size  Location     Type
  1785 ;;  address         1   26[COMRAM] unsigned char 
  1786 ;; Return value:  Size  Location     Type
  1787 ;;                  1    wreg      void 
  1788 ;; Registers used:
  1789 ;;		wreg, fsr2l, fsr2h, status,2, status,0, prodl, prodh, cstack
  1790 ;; Tracked objects:
  1791 ;;		On entry : 0/0
  1792 ;;		On exit  : 0/0
  1793 ;;		Unchanged: 0/0
  1794 ;; Data sizes:     COMRAM   BANK0   BANK1   BANK2   BANK3   BANK4   BANK5   BANK6   BANK7   BANK8   BANK9  BANK10  BANK1
      +1  BANK12  BANK13  BANK14  BANK15
  1795 ;;      Params:         1       0       0       0       0       0       0       0       0       0       0       0       
      +0       0       0       0       0
  1796 ;;      Locals:         1       0       0       0       0       0       0       0       0       0       0       0       
      +0       0       0       0       0
  1797 ;;      Temps:          0       0       0       0       0       0       0       0       0       0       0       0       
      +0       0       0       0       0
  1798 ;;      Totals:         2       0       0       0       0       0       0       0       0       0       0       0       
      +0       0       0       0       0
  1799 ;;Total ram usage:        2 bytes
  1800 ;; Hardware stack levels used: 1
  1801 ;; Hardware stack levels required when called: 10
  1802 ;; This function calls:
  1803 ;;		_I2C_Close
  1804 ;;		_I2C_MasterWrite
  1805 ;;		_I2C_Open
  1806 ;;		_I2C_SetAddressNackCallback
  1807 ;;		_I2C_SetBuffer
  1808 ;; This function is called by:
  1809 ;;		_main
  1810 ;; This function uses a non-reentrant model
  1811 ;;
  1812                           
  1813                           	psect	text16
  1814   001CC8                     __ptext16:
  1815                           	callstack 0
  1816   001CC8                     _I2C_Write1Byte:
  1817                           	callstack 20
  1818                           
  1819                           ;incstack = 0
  1820                           ;I2C_Write1Byte@address stored from wreg
  1821   001CC8  6E1B               	movwf	I2C_Write1Byte@address^0,c
  1822   001CCA                     l3878:
  1823   001CCA  501B               	movf	I2C_Write1Byte@address^0,w,c
  1824   001CCC  EC26  F00C         	call	_I2C_Open
  1825   001CD0  0900               	iorlw	0
  1826   001CD2  B4D8               	btfsc	status,2,c
  1827   001CD4  EF6E  F00E         	goto	u1861
  1828   001CD8  EF70  F00E         	goto	u1860
  1829   001CDC                     u1861:
  1830   001CDC  EF65  F00E         	goto	l3878
  1831   001CE0                     u1860:
  1832   001CE0                     
  1833                           ;mcc_generated_files/i2c_client/src/i2c_master_example.c: 103:     I2C_SetBuffer(&reg,1)
      +                          ;
  1834   001CE0  0E1A               	movlw	low I2C_Write1Byte@reg
  1835   001CE2  6E11               	movwf	I2C_SetBuffer@buffer^0,c
  1836   001CE4  6A12               	clrf	(I2C_SetBuffer@buffer+1)^0,c
  1837   001CE6  0E00               	movlw	0
  1838   001CE8  6E14               	movwf	(I2C_SetBuffer@bufferSize+1)^0,c
  1839   001CEA  0E01               	movlw	1
  1840   001CEC  6E13               	movwf	I2C_SetBuffer@bufferSize^0,c
  1841   001CEE  EC6B  F010         	call	_I2C_SetBuffer	;wreg free
  1842   001CF2                     
  1843                           ;mcc_generated_files/i2c_client/src/i2c_master_example.c: 104:     I2C_SetAddressNackCal
      +                          lback(((void*)0),((void*)0));
  1844   001CF2  0E00               	movlw	0
  1845   001CF4  6E16               	movwf	I2C_SetAddressNackCallback@cb^0,c
  1846   001CF6  0E00               	movlw	0
  1847   001CF8  6E17               	movwf	(I2C_SetAddressNackCallback@cb+1)^0,c
  1848   001CFA  0E00               	movlw	0
  1849   001CFC  6E18               	movwf	I2C_SetAddressNackCallback@ptr^0,c
  1850   001CFE  0E00               	movlw	0
  1851   001D00  6E19               	movwf	(I2C_SetAddressNackCallback@ptr+1)^0,c
  1852   001D02  ECF5  F010         	call	_I2C_SetAddressNackCallback	;wreg free
  1853   001D06                     
  1854                           ;mcc_generated_files/i2c_client/src/i2c_master_example.c: 105:     I2C_MasterWrite();
  1855   001D06  EC91  F011         	call	_I2C_MasterWrite	;wreg free
  1856   001D0A                     l3886:
  1857   001D0A  ECD3  F00F         	call	_I2C_Close	;wreg free
  1858   001D0E  06E8               	decf	wreg,f,c
  1859   001D10  B4D8               	btfsc	status,2,c
  1860   001D12  EF8D  F00E         	goto	u1871
  1861   001D16  EF8F  F00E         	goto	u1870
  1862   001D1A                     u1871:
  1863   001D1A  EF85  F00E         	goto	l3886
  1864   001D1E                     u1870:
  1865   001D1E  0012               	return		;funcret
  1866   001D20                     __end_of_I2C_Write1Byte:
  1867                           	callstack 0
  1868                           
  1869 ;; *************** function _Get_time_And_Date *****************
  1870 ;; Defined at:
  1871 ;;		line 13 in file "mcc_generated_files/DS1307/DS1307.c"
  1872 ;; Parameters:    Size  Location     Type
  1873 ;;		None
  1874 ;; Auto vars:     Size  Location     Type
  1875 ;;		None
  1876 ;; Return value:  Size  Location     Type
  1877 ;;                  6   31[COMRAM] struct .
  1878 ;; Registers used:
  1879 ;;		wreg, fsr0l, fsr0h, fsr2l, fsr2h, status,2, status,0, prodl, prodh, cstack
  1880 ;; Tracked objects:
  1881 ;;		On entry : 0/0
  1882 ;;		On exit  : 0/0
  1883 ;;		Unchanged: 0/0
  1884 ;; Data sizes:     COMRAM   BANK0   BANK1   BANK2   BANK3   BANK4   BANK5   BANK6   BANK7   BANK8   BANK9  BANK10  BANK1
      +1  BANK12  BANK13  BANK14  BANK15
  1885 ;;      Params:         6       0       0       0       0       0       0       0       0       0       0       0       
      +0       0       0       0       0
  1886 ;;      Locals:         0       0       0       0       0       0       0       0       0       0       0       0       
      +0       0       0       0       0
  1887 ;;      Temps:          0       0       0       0       0       0       0       0       0       0       0       0       
      +0       0       0       0       0
  1888 ;;      Totals:         6       0       0       0       0       0       0       0       0       0       0       0       
      +0       0       0       0       0
  1889 ;;Total ram usage:        6 bytes
  1890 ;; Hardware stack levels used: 1
  1891 ;; Hardware stack levels required when called: 12
  1892 ;; This function calls:
  1893 ;;		_Get_days
  1894 ;;		_Get_hours
  1895 ;;		_Get_minutes
  1896 ;;		_Get_months
  1897 ;;		_Get_seconds
  1898 ;;		_Get_years
  1899 ;; This function is called by:
  1900 ;;		_main
  1901 ;; This function uses a non-reentrant model
  1902 ;;
  1903                           
  1904                           	psect	text17
  1905   001B2E                     __ptext17:
  1906                           	callstack 0
  1907   001B2E                     _Get_time_And_Date:
  1908                           	callstack 18
  1909   001B2E                     
  1910                           ;mcc_generated_files/DS1307/DS1307.c: 14:     DS1307_obj._Second = Get_seconds(0xD0, 0x0
      +                          0);
  1911   001B2E  0E00               	movlw	0
  1912   001B30  6E1D               	movwf	Get_seconds@reg^0,c
  1913   001B32  0ED0               	movlw	208
  1914   001B34  EC2A  F011         	call	_Get_seconds
  1915   001B38  0100               	movlb	0	; () banked
  1916   001B3A  6FAC               	movwf	(_DS1307_obj@DS1307$F91+2)& (0+255),b
  1917                           
  1918                           ;mcc_generated_files/DS1307/DS1307.c: 15:     DS1307_obj._Minute = Get_minutes(0xD0, 0x0
      +                          1);
  1919   001B3C  0E01               	movlw	1
  1920   001B3E  6E1D               	movwf	Get_minutes@reg^0,c
  1921   001B40  0ED0               	movlw	208
  1922   001B42  EC3C  F011         	call	_Get_minutes
  1923   001B46  0100               	movlb	0	; () banked
  1924   001B48  6FAB               	movwf	(_DS1307_obj@DS1307$F91+1)& (0+255),b
  1925                           
  1926                           ;mcc_generated_files/DS1307/DS1307.c: 16:     DS1307_obj._Hour = Get_hours(0xD0, 0x02);
  1927   001B4A  0E02               	movlw	2
  1928   001B4C  6E1D               	movwf	Get_hours@reg^0,c
  1929   001B4E  0ED0               	movlw	208
  1930   001B50  EC45  F011         	call	_Get_hours
  1931   001B54  0100               	movlb	0	; () banked
  1932   001B56  6FAA               	movwf	_DS1307_obj@DS1307$F91& (0+255),b
  1933                           
  1934                           ;mcc_generated_files/DS1307/DS1307.c: 17:     DS1307_obj._Year = Get_years(0xD0, 0x06);
  1935   001B58  0E06               	movlw	6
  1936   001B5A  6E1D               	movwf	Get_years@reg^0,c
  1937   001B5C  0ED0               	movlw	208
  1938   001B5E  EC21  F011         	call	_Get_years
  1939   001B62  0100               	movlb	0	; () banked
  1940   001B64  6FAD               	movwf	(_DS1307_obj@DS1307$F91+3)& (0+255),b
  1941                           
  1942                           ;mcc_generated_files/DS1307/DS1307.c: 18:     DS1307_obj._Month = Get_months(0xD0, 0x05)
      +                          ;
  1943   001B66  0E05               	movlw	5
  1944   001B68  6E1D               	movwf	Get_months@reg^0,c
  1945   001B6A  0ED0               	movlw	208
  1946   001B6C  EC33  F011         	call	_Get_months
  1947   001B70  0100               	movlb	0	; () banked
  1948   001B72  6FAE               	movwf	(_DS1307_obj@DS1307$F91+4)& (0+255),b
  1949                           
  1950                           ;mcc_generated_files/DS1307/DS1307.c: 19:     DS1307_obj._Day = Get_days(0xD0, 0x04);
  1951   001B74  0E04               	movlw	4
  1952   001B76  6E1D               	movwf	Get_days@reg^0,c
  1953   001B78  0ED0               	movlw	208
  1954   001B7A  EC4E  F011         	call	_Get_days
  1955   001B7E  0100               	movlb	0	; () banked
  1956   001B80  6FAF               	movwf	(_DS1307_obj@DS1307$F91+5)& (0+255),b
  1957   001B82                     
  1958                           ; BSR set to: 0
  1959                           ;mcc_generated_files/DS1307/DS1307.c: 20:     return DS1307_obj;
  1960   001B82  EE20  F0AA         	lfsr	2,_DS1307_obj@DS1307$F91
  1961   001B86  EE00  F020         	lfsr	0,?_Get_time_And_Date
  1962   001B8A  0E05               	movlw	5
  1963   001B8C                     u1851:
  1964   001B8C  CFDB FFEB          	movff	plusw2,plusw0
  1965   001B90  06E8               	decf	wreg,f,c
  1966   001B92  E2FC               	bc	u1851
  1967   001B94                     
  1968                           ; BSR set to: 0
  1969   001B94  0012               	return		;funcret
  1970   001B96                     __end_of_Get_time_And_Date:
  1971                           	callstack 0
  1972                           
  1973 ;; *************** function _Get_years *****************
  1974 ;; Defined at:
  1975 ;;		line 38 in file "mcc_generated_files/DS1307/DS1307.c"
  1976 ;; Parameters:    Size  Location     Type
  1977 ;;  address         1    wreg     unsigned char 
  1978 ;;  reg             1   28[COMRAM] unsigned char 
  1979 ;; Auto vars:     Size  Location     Type
  1980 ;;  address         1   29[COMRAM] unsigned char 
  1981 ;;  years           1   30[COMRAM] unsigned char 
  1982 ;; Return value:  Size  Location     Type
  1983 ;;                  1    wreg      unsigned char 
  1984 ;; Registers used:
  1985 ;;		wreg, fsr2l, fsr2h, status,2, status,0, prodl, prodh, cstack
  1986 ;; Tracked objects:
  1987 ;;		On entry : 0/0
  1988 ;;		On exit  : 0/0
  1989 ;;		Unchanged: 0/0
  1990 ;; Data sizes:     COMRAM   BANK0   BANK1   BANK2   BANK3   BANK4   BANK5   BANK6   BANK7   BANK8   BANK9  BANK10  BANK1
      +1  BANK12  BANK13  BANK14  BANK15
  1991 ;;      Params:         1       0       0       0       0       0       0       0       0       0       0       0       
      +0       0       0       0       0
  1992 ;;      Locals:         2       0       0       0       0       0       0       0       0       0       0       0       
      +0       0       0       0       0
  1993 ;;      Temps:          0       0       0       0       0       0       0       0       0       0       0       0       
      +0       0       0       0       0
  1994 ;;      Totals:         3       0       0       0       0       0       0       0       0       0       0       0       
      +0       0       0       0       0
  1995 ;;Total ram usage:        3 bytes
  1996 ;; Hardware stack levels used: 1
  1997 ;; Hardware stack levels required when called: 11
  1998 ;; This function calls:
  1999 ;;		_I2C_Read1ByteRegister
  2000 ;; This function is called by:
  2001 ;;		_Get_time_And_Date
  2002 ;; This function uses a non-reentrant model
  2003 ;;
  2004                           
  2005                           	psect	text18
  2006   002242                     __ptext18:
  2007                           	callstack 0
  2008   002242                     _Get_years:
  2009                           	callstack 18
  2010                           
  2011                           ; BSR set to: 0
  2012                           ;incstack = 0
  2013                           ;Get_years@address stored from wreg
  2014   002242  6E1E               	movwf	Get_years@address^0,c
  2015   002244                     
  2016                           ;mcc_generated_files/DS1307/DS1307.c: 39:     uint8_t years = I2C_Read1ByteRegister(addr
      +                          ess, reg);
  2017   002244  C01D  F01A         	movff	Get_years@reg,I2C_Read1ByteRegister@reg
  2018   002248  501E               	movf	Get_years@address^0,w,c
  2019   00224A  ECF2  F00C         	call	_I2C_Read1ByteRegister
  2020   00224E  6E1F               	movwf	Get_years@years^0,c
  2021   002250                     
  2022                           ;mcc_generated_files/DS1307/DS1307.c: 40:     return years;
  2023   002250  501F               	movf	Get_years@years^0,w,c
  2024   002252  0012               	return		;funcret
  2025   002254                     __end_of_Get_years:
  2026                           	callstack 0
  2027                           
  2028 ;; *************** function _Get_seconds *****************
  2029 ;; Defined at:
  2030 ;;		line 23 in file "mcc_generated_files/DS1307/DS1307.c"
  2031 ;; Parameters:    Size  Location     Type
  2032 ;;  address         1    wreg     unsigned char 
  2033 ;;  reg             1   28[COMRAM] unsigned char 
  2034 ;; Auto vars:     Size  Location     Type
  2035 ;;  address         1   29[COMRAM] unsigned char 
  2036 ;;  seconds         1   30[COMRAM] unsigned char 
  2037 ;; Return value:  Size  Location     Type
  2038 ;;                  1    wreg      unsigned char 
  2039 ;; Registers used:
  2040 ;;		wreg, fsr2l, fsr2h, status,2, status,0, prodl, prodh, cstack
  2041 ;; Tracked objects:
  2042 ;;		On entry : 0/0
  2043 ;;		On exit  : 0/0
  2044 ;;		Unchanged: 0/0
  2045 ;; Data sizes:     COMRAM   BANK0   BANK1   BANK2   BANK3   BANK4   BANK5   BANK6   BANK7   BANK8   BANK9  BANK10  BANK1
      +1  BANK12  BANK13  BANK14  BANK15
  2046 ;;      Params:         1       0       0       0       0       0       0       0       0       0       0       0       
      +0       0       0       0       0
  2047 ;;      Locals:         2       0       0       0       0       0       0       0       0       0       0       0       
      +0       0       0       0       0
  2048 ;;      Temps:          0       0       0       0       0       0       0       0       0       0       0       0       
      +0       0       0       0       0
  2049 ;;      Totals:         3       0       0       0       0       0       0       0       0       0       0       0       
      +0       0       0       0       0
  2050 ;;Total ram usage:        3 bytes
  2051 ;; Hardware stack levels used: 1
  2052 ;; Hardware stack levels required when called: 11
  2053 ;; This function calls:
  2054 ;;		_I2C_Read1ByteRegister
  2055 ;; This function is called by:
  2056 ;;		_Get_time_And_Date
  2057 ;; This function uses a non-reentrant model
  2058 ;;
  2059                           
  2060                           	psect	text19
  2061   002254                     __ptext19:
  2062                           	callstack 0
  2063   002254                     _Get_seconds:
  2064                           	callstack 18
  2065                           
  2066                           ;incstack = 0
  2067                           ;Get_seconds@address stored from wreg
  2068   002254  6E1E               	movwf	Get_seconds@address^0,c
  2069   002256                     
  2070                           ;mcc_generated_files/DS1307/DS1307.c: 24:     uint8_t seconds = I2C_Read1ByteRegister(ad
      +                          dress, reg);
  2071   002256  C01D  F01A         	movff	Get_seconds@reg,I2C_Read1ByteRegister@reg
  2072   00225A  501E               	movf	Get_seconds@address^0,w,c
  2073   00225C  ECF2  F00C         	call	_I2C_Read1ByteRegister
  2074   002260  6E1F               	movwf	Get_seconds@seconds^0,c
  2075   002262                     
  2076                           ;mcc_generated_files/DS1307/DS1307.c: 25:     return seconds;
  2077   002262  501F               	movf	Get_seconds@seconds^0,w,c
  2078   002264  0012               	return		;funcret
  2079   002266                     __end_of_Get_seconds:
  2080                           	callstack 0
  2081                           
  2082 ;; *************** function _Get_months *****************
  2083 ;; Defined at:
  2084 ;;		line 43 in file "mcc_generated_files/DS1307/DS1307.c"
  2085 ;; Parameters:    Size  Location     Type
  2086 ;;  address         1    wreg     unsigned char 
  2087 ;;  reg             1   28[COMRAM] unsigned char 
  2088 ;; Auto vars:     Size  Location     Type
  2089 ;;  address         1   29[COMRAM] unsigned char 
  2090 ;;  months          1   30[COMRAM] unsigned char 
  2091 ;; Return value:  Size  Location     Type
  2092 ;;                  1    wreg      unsigned char 
  2093 ;; Registers used:
  2094 ;;		wreg, fsr2l, fsr2h, status,2, status,0, prodl, prodh, cstack
  2095 ;; Tracked objects:
  2096 ;;		On entry : 0/0
  2097 ;;		On exit  : 0/0
  2098 ;;		Unchanged: 0/0
  2099 ;; Data sizes:     COMRAM   BANK0   BANK1   BANK2   BANK3   BANK4   BANK5   BANK6   BANK7   BANK8   BANK9  BANK10  BANK1
      +1  BANK12  BANK13  BANK14  BANK15
  2100 ;;      Params:         1       0       0       0       0       0       0       0       0       0       0       0       
      +0       0       0       0       0
  2101 ;;      Locals:         2       0       0       0       0       0       0       0       0       0       0       0       
      +0       0       0       0       0
  2102 ;;      Temps:          0       0       0       0       0       0       0       0       0       0       0       0       
      +0       0       0       0       0
  2103 ;;      Totals:         3       0       0       0       0       0       0       0       0       0       0       0       
      +0       0       0       0       0
  2104 ;;Total ram usage:        3 bytes
  2105 ;; Hardware stack levels used: 1
  2106 ;; Hardware stack levels required when called: 11
  2107 ;; This function calls:
  2108 ;;		_I2C_Read1ByteRegister
  2109 ;; This function is called by:
  2110 ;;		_Get_time_And_Date
  2111 ;; This function uses a non-reentrant model
  2112 ;;
  2113                           
  2114                           	psect	text20
  2115   002266                     __ptext20:
  2116                           	callstack 0
  2117   002266                     _Get_months:
  2118                           	callstack 18
  2119                           
  2120                           ;incstack = 0
  2121                           ;Get_months@address stored from wreg
  2122   002266  6E1E               	movwf	Get_months@address^0,c
  2123   002268                     
  2124                           ;mcc_generated_files/DS1307/DS1307.c: 44:     uint8_t months = I2C_Read1ByteRegister(add
      +                          ress, reg);
  2125   002268  C01D  F01A         	movff	Get_months@reg,I2C_Read1ByteRegister@reg
  2126   00226C  501E               	movf	Get_months@address^0,w,c
  2127   00226E  ECF2  F00C         	call	_I2C_Read1ByteRegister
  2128   002272  6E1F               	movwf	Get_months@months^0,c
  2129   002274                     
  2130                           ;mcc_generated_files/DS1307/DS1307.c: 45:     return months;
  2131   002274  501F               	movf	Get_months@months^0,w,c
  2132   002276  0012               	return		;funcret
  2133   002278                     __end_of_Get_months:
  2134                           	callstack 0
  2135                           
  2136 ;; *************** function _Get_minutes *****************
  2137 ;; Defined at:
  2138 ;;		line 28 in file "mcc_generated_files/DS1307/DS1307.c"
  2139 ;; Parameters:    Size  Location     Type
  2140 ;;  address         1    wreg     unsigned char 
  2141 ;;  reg             1   28[COMRAM] unsigned char 
  2142 ;; Auto vars:     Size  Location     Type
  2143 ;;  address         1   29[COMRAM] unsigned char 
  2144 ;;  minutes         1   30[COMRAM] unsigned char 
  2145 ;; Return value:  Size  Location     Type
  2146 ;;                  1    wreg      unsigned char 
  2147 ;; Registers used:
  2148 ;;		wreg, fsr2l, fsr2h, status,2, status,0, prodl, prodh, cstack
  2149 ;; Tracked objects:
  2150 ;;		On entry : 0/0
  2151 ;;		On exit  : 0/0
  2152 ;;		Unchanged: 0/0
  2153 ;; Data sizes:     COMRAM   BANK0   BANK1   BANK2   BANK3   BANK4   BANK5   BANK6   BANK7   BANK8   BANK9  BANK10  BANK1
      +1  BANK12  BANK13  BANK14  BANK15
  2154 ;;      Params:         1       0       0       0       0       0       0       0       0       0       0       0       
      +0       0       0       0       0
  2155 ;;      Locals:         2       0       0       0       0       0       0       0       0       0       0       0       
      +0       0       0       0       0
  2156 ;;      Temps:          0       0       0       0       0       0       0       0       0       0       0       0       
      +0       0       0       0       0
  2157 ;;      Totals:         3       0       0       0       0       0       0       0       0       0       0       0       
      +0       0       0       0       0
  2158 ;;Total ram usage:        3 bytes
  2159 ;; Hardware stack levels used: 1
  2160 ;; Hardware stack levels required when called: 11
  2161 ;; This function calls:
  2162 ;;		_I2C_Read1ByteRegister
  2163 ;; This function is called by:
  2164 ;;		_Get_time_And_Date
  2165 ;; This function uses a non-reentrant model
  2166 ;;
  2167                           
  2168                           	psect	text21
  2169   002278                     __ptext21:
  2170                           	callstack 0
  2171   002278                     _Get_minutes:
  2172                           	callstack 18
  2173                           
  2174                           ;incstack = 0
  2175                           ;Get_minutes@address stored from wreg
  2176   002278  6E1E               	movwf	Get_minutes@address^0,c
  2177   00227A                     
  2178                           ;mcc_generated_files/DS1307/DS1307.c: 29:     uint8_t minutes = I2C_Read1ByteRegister(ad
      +                          dress, reg);
  2179   00227A  C01D  F01A         	movff	Get_minutes@reg,I2C_Read1ByteRegister@reg
  2180   00227E  501E               	movf	Get_minutes@address^0,w,c
  2181   002280  ECF2  F00C         	call	_I2C_Read1ByteRegister
  2182   002284  6E1F               	movwf	Get_minutes@minutes^0,c
  2183   002286                     
  2184                           ;mcc_generated_files/DS1307/DS1307.c: 30:     return minutes;
  2185   002286  501F               	movf	Get_minutes@minutes^0,w,c
  2186   002288  0012               	return		;funcret
  2187   00228A                     __end_of_Get_minutes:
  2188                           	callstack 0
  2189                           
  2190 ;; *************** function _Get_hours *****************
  2191 ;; Defined at:
  2192 ;;		line 33 in file "mcc_generated_files/DS1307/DS1307.c"
  2193 ;; Parameters:    Size  Location     Type
  2194 ;;  address         1    wreg     unsigned char 
  2195 ;;  reg             1   28[COMRAM] unsigned char 
  2196 ;; Auto vars:     Size  Location     Type
  2197 ;;  address         1   29[COMRAM] unsigned char 
  2198 ;;  hours           1   30[COMRAM] unsigned char 
  2199 ;; Return value:  Size  Location     Type
  2200 ;;                  1    wreg      unsigned char 
  2201 ;; Registers used:
  2202 ;;		wreg, fsr2l, fsr2h, status,2, status,0, prodl, prodh, cstack
  2203 ;; Tracked objects:
  2204 ;;		On entry : 0/0
  2205 ;;		On exit  : 0/0
  2206 ;;		Unchanged: 0/0
  2207 ;; Data sizes:     COMRAM   BANK0   BANK1   BANK2   BANK3   BANK4   BANK5   BANK6   BANK7   BANK8   BANK9  BANK10  BANK1
      +1  BANK12  BANK13  BANK14  BANK15
  2208 ;;      Params:         1       0       0       0       0       0       0       0       0       0       0       0       
      +0       0       0       0       0
  2209 ;;      Locals:         2       0       0       0       0       0       0       0       0       0       0       0       
      +0       0       0       0       0
  2210 ;;      Temps:          0       0       0       0       0       0       0       0       0       0       0       0       
      +0       0       0       0       0
  2211 ;;      Totals:         3       0       0       0       0       0       0       0       0       0       0       0       
      +0       0       0       0       0
  2212 ;;Total ram usage:        3 bytes
  2213 ;; Hardware stack levels used: 1
  2214 ;; Hardware stack levels required when called: 11
  2215 ;; This function calls:
  2216 ;;		_I2C_Read1ByteRegister
  2217 ;; This function is called by:
  2218 ;;		_Get_time_And_Date
  2219 ;; This function uses a non-reentrant model
  2220 ;;
  2221                           
  2222                           	psect	text22
  2223   00228A                     __ptext22:
  2224                           	callstack 0
  2225   00228A                     _Get_hours:
  2226                           	callstack 18
  2227                           
  2228                           ;incstack = 0
  2229                           ;Get_hours@address stored from wreg
  2230   00228A  6E1E               	movwf	Get_hours@address^0,c
  2231   00228C                     
  2232                           ;mcc_generated_files/DS1307/DS1307.c: 34:     uint8_t hours = I2C_Read1ByteRegister(addr
      +                          ess, reg);
  2233   00228C  C01D  F01A         	movff	Get_hours@reg,I2C_Read1ByteRegister@reg
  2234   002290  501E               	movf	Get_hours@address^0,w,c
  2235   002292  ECF2  F00C         	call	_I2C_Read1ByteRegister
  2236   002296  6E1F               	movwf	Get_hours@hours^0,c
  2237   002298                     
  2238                           ;mcc_generated_files/DS1307/DS1307.c: 35:     return hours;
  2239   002298  501F               	movf	Get_hours@hours^0,w,c
  2240   00229A  0012               	return		;funcret
  2241   00229C                     __end_of_Get_hours:
  2242                           	callstack 0
  2243                           
  2244 ;; *************** function _Get_days *****************
  2245 ;; Defined at:
  2246 ;;		line 48 in file "mcc_generated_files/DS1307/DS1307.c"
  2247 ;; Parameters:    Size  Location     Type
  2248 ;;  address         1    wreg     unsigned char 
  2249 ;;  reg             1   28[COMRAM] unsigned char 
  2250 ;; Auto vars:     Size  Location     Type
  2251 ;;  address         1   29[COMRAM] unsigned char 
  2252 ;;  days            1   30[COMRAM] unsigned char 
  2253 ;; Return value:  Size  Location     Type
  2254 ;;                  1    wreg      unsigned char 
  2255 ;; Registers used:
  2256 ;;		wreg, fsr2l, fsr2h, status,2, status,0, prodl, prodh, cstack
  2257 ;; Tracked objects:
  2258 ;;		On entry : 0/0
  2259 ;;		On exit  : 0/0
  2260 ;;		Unchanged: 0/0
  2261 ;; Data sizes:     COMRAM   BANK0   BANK1   BANK2   BANK3   BANK4   BANK5   BANK6   BANK7   BANK8   BANK9  BANK10  BANK1
      +1  BANK12  BANK13  BANK14  BANK15
  2262 ;;      Params:         1       0       0       0       0       0       0       0       0       0       0       0       
      +0       0       0       0       0
  2263 ;;      Locals:         2       0       0       0       0       0       0       0       0       0       0       0       
      +0       0       0       0       0
  2264 ;;      Temps:          0       0       0       0       0       0       0       0       0       0       0       0       
      +0       0       0       0       0
  2265 ;;      Totals:         3       0       0       0       0       0       0       0       0       0       0       0       
      +0       0       0       0       0
  2266 ;;Total ram usage:        3 bytes
  2267 ;; Hardware stack levels used: 1
  2268 ;; Hardware stack levels required when called: 11
  2269 ;; This function calls:
  2270 ;;		_I2C_Read1ByteRegister
  2271 ;; This function is called by:
  2272 ;;		_Get_time_And_Date
  2273 ;; This function uses a non-reentrant model
  2274 ;;
  2275                           
  2276                           	psect	text23
  2277   00229C                     __ptext23:
  2278                           	callstack 0
  2279   00229C                     _Get_days:
  2280                           	callstack 18
  2281                           
  2282                           ;incstack = 0
  2283                           ;Get_days@address stored from wreg
  2284   00229C  6E1E               	movwf	Get_days@address^0,c
  2285   00229E                     
  2286                           ;mcc_generated_files/DS1307/DS1307.c: 49:     uint8_t days = I2C_Read1ByteRegister(addre
      +                          ss, reg);
  2287   00229E  C01D  F01A         	movff	Get_days@reg,I2C_Read1ByteRegister@reg
  2288   0022A2  501E               	movf	Get_days@address^0,w,c
  2289   0022A4  ECF2  F00C         	call	_I2C_Read1ByteRegister
  2290   0022A8  6E1F               	movwf	Get_days@days^0,c
  2291   0022AA                     
  2292                           ;mcc_generated_files/DS1307/DS1307.c: 50:     return days;
  2293   0022AA  501F               	movf	Get_days@days^0,w,c
  2294   0022AC  0012               	return		;funcret
  2295   0022AE                     __end_of_Get_days:
  2296                           	callstack 0
  2297                           
  2298 ;; *************** function _I2C_Read1ByteRegister *****************
  2299 ;; Defined at:
  2300 ;;		line 63 in file "mcc_generated_files/i2c_client/src/i2c_master_example.c"
  2301 ;; Parameters:    Size  Location     Type
  2302 ;;  address         1    wreg     unsigned char 
  2303 ;;  reg             1   25[COMRAM] unsigned char 
  2304 ;; Auto vars:     Size  Location     Type
  2305 ;;  address         1   26[COMRAM] unsigned char 
  2306 ;;  returnValue     1   27[COMRAM] unsigned char 
  2307 ;; Return value:  Size  Location     Type
  2308 ;;                  1    wreg      unsigned char 
  2309 ;; Registers used:
  2310 ;;		wreg, fsr2l, fsr2h, status,2, status,0, prodl, prodh, cstack
  2311 ;; Tracked objects:
  2312 ;;		On entry : 0/0
  2313 ;;		On exit  : 0/0
  2314 ;;		Unchanged: 0/0
  2315 ;; Data sizes:     COMRAM   BANK0   BANK1   BANK2   BANK3   BANK4   BANK5   BANK6   BANK7   BANK8   BANK9  BANK10  BANK1
      +1  BANK12  BANK13  BANK14  BANK15
  2316 ;;      Params:         1       0       0       0       0       0       0       0       0       0       0       0       
      +0       0       0       0       0
  2317 ;;      Locals:         2       0       0       0       0       0       0       0       0       0       0       0       
      +0       0       0       0       0
  2318 ;;      Temps:          0       0       0       0       0       0       0       0       0       0       0       0       
      +0       0       0       0       0
  2319 ;;      Totals:         3       0       0       0       0       0       0       0       0       0       0       0       
      +0       0       0       0       0
  2320 ;;Total ram usage:        3 bytes
  2321 ;; Hardware stack levels used: 1
  2322 ;; Hardware stack levels required when called: 10
  2323 ;; This function calls:
  2324 ;;		_I2C_Close
  2325 ;;		_I2C_MasterWrite
  2326 ;;		_I2C_Open
  2327 ;;		_I2C_SetAddressNackCallback
  2328 ;;		_I2C_SetBuffer
  2329 ;;		_I2C_SetDataCompleteCallback
  2330 ;; This function is called by:
  2331 ;;		_Get_seconds
  2332 ;;		_Get_minutes
  2333 ;;		_Get_hours
  2334 ;;		_Get_years
  2335 ;;		_Get_months
  2336 ;;		_Get_days
  2337 ;;		_Read_Temperature
  2338 ;;		_EX_EEPROM_Read_Byte
  2339 ;; This function uses a non-reentrant model
  2340 ;;
  2341                           
  2342                           	psect	text24
  2343   0019E4                     __ptext24:
  2344                           	callstack 0
  2345   0019E4                     _I2C_Read1ByteRegister:
  2346                           	callstack 19
  2347                           
  2348                           ;incstack = 0
  2349                           ;I2C_Read1ByteRegister@address stored from wreg
  2350   0019E4  6E1B               	movwf	I2C_Read1ByteRegister@address^0,c
  2351   0019E6                     
  2352                           ;mcc_generated_files/i2c_client/src/i2c_master_example.c: 63: uint8_t I2C_Read1ByteRegis
      +                          ter(i2c_address_t address, uint8_t reg);mcc_generated_files/i2c_client/src/i2c_master_ex
      +                          ample.c: 64: {;mcc_generated_files/i2c_client/src/i2c_master_example.c: 65:     uint8_t 
      +                          returnValue = 0x00;
  2353   0019E6  0E00               	movlw	0
  2354   0019E8  6E1C               	movwf	I2C_Read1ByteRegister@returnValue^0,c
  2355   0019EA                     l3534:
  2356   0019EA  501B               	movf	I2C_Read1ByteRegister@address^0,w,c
  2357   0019EC  EC26  F00C         	call	_I2C_Open
  2358   0019F0  0900               	iorlw	0
  2359   0019F2  B4D8               	btfsc	status,2,c
  2360   0019F4  EFFE  F00C         	goto	u1631
  2361   0019F8  EF00  F00D         	goto	u1630
  2362   0019FC                     u1631:
  2363   0019FC  EFF5  F00C         	goto	l3534
  2364   001A00                     u1630:
  2365   001A00                     
  2366                           ;mcc_generated_files/i2c_client/src/i2c_master_example.c: 68:     I2C_SetDataCompleteCal
      +                          lback(rd1RegCompleteHandler,&returnValue);
  2367   001A00  0E56               	movlw	low _rd1RegCompleteHandler
  2368   001A02  6E16               	movwf	I2C_SetDataCompleteCallback@cb^0,c
  2369   001A04  0E20               	movlw	high _rd1RegCompleteHandler
  2370   001A06  6E17               	movwf	(I2C_SetDataCompleteCallback@cb+1)^0,c
  2371   001A08  0E1C               	movlw	low I2C_Read1ByteRegister@returnValue
  2372   001A0A  6E18               	movwf	I2C_SetDataCompleteCallback@ptr^0,c
  2373   001A0C  6A19               	clrf	(I2C_SetDataCompleteCallback@ptr+1)^0,c
  2374   001A0E  ECE9  F010         	call	_I2C_SetDataCompleteCallback	;wreg free
  2375   001A12                     
  2376                           ;mcc_generated_files/i2c_client/src/i2c_master_example.c: 69:     I2C_SetBuffer(&reg,1);
  2377   001A12  0E1A               	movlw	low I2C_Read1ByteRegister@reg
  2378   001A14  6E11               	movwf	I2C_SetBuffer@buffer^0,c
  2379   001A16  6A12               	clrf	(I2C_SetBuffer@buffer+1)^0,c
  2380   001A18  0E00               	movlw	0
  2381   001A1A  6E14               	movwf	(I2C_SetBuffer@bufferSize+1)^0,c
  2382   001A1C  0E01               	movlw	1
  2383   001A1E  6E13               	movwf	I2C_SetBuffer@bufferSize^0,c
  2384   001A20  EC6B  F010         	call	_I2C_SetBuffer	;wreg free
  2385   001A24                     
  2386                           ;mcc_generated_files/i2c_client/src/i2c_master_example.c: 70:     I2C_SetAddressNackCall
      +                          back(((void*)0),((void*)0));
  2387   001A24  0E00               	movlw	0
  2388   001A26  6E16               	movwf	I2C_SetAddressNackCallback@cb^0,c
  2389   001A28  0E00               	movlw	0
  2390   001A2A  6E17               	movwf	(I2C_SetAddressNackCallback@cb+1)^0,c
  2391   001A2C  0E00               	movlw	0
  2392   001A2E  6E18               	movwf	I2C_SetAddressNackCallback@ptr^0,c
  2393   001A30  0E00               	movlw	0
  2394   001A32  6E19               	movwf	(I2C_SetAddressNackCallback@ptr+1)^0,c
  2395   001A34  ECF5  F010         	call	_I2C_SetAddressNackCallback	;wreg free
  2396   001A38                     
  2397                           ;mcc_generated_files/i2c_client/src/i2c_master_example.c: 71:     I2C_MasterWrite();
  2398   001A38  EC91  F011         	call	_I2C_MasterWrite	;wreg free
  2399   001A3C                     l3544:
  2400   001A3C  ECD3  F00F         	call	_I2C_Close	;wreg free
  2401   001A40  06E8               	decf	wreg,f,c
  2402   001A42  B4D8               	btfsc	status,2,c
  2403   001A44  EF26  F00D         	goto	u1641
  2404   001A48  EF28  F00D         	goto	u1640
  2405   001A4C                     u1641:
  2406   001A4C  EF1E  F00D         	goto	l3544
  2407   001A50                     u1640:
  2408   001A50                     
  2409                           ;mcc_generated_files/i2c_client/src/i2c_master_example.c: 74:     return returnValue;
  2410   001A50  501C               	movf	I2C_Read1ByteRegister@returnValue^0,w,c
  2411   001A52  0012               	return		;funcret
  2412   001A54                     __end_of_I2C_Read1ByteRegister:
  2413                           	callstack 0
  2414                           
  2415 ;; *************** function _I2C_SetDataCompleteCallback *****************
  2416 ;; Defined at:
  2417 ;;		line 274 in file "mcc_generated_files/i2c_client/src/i2c_master.c"
  2418 ;; Parameters:    Size  Location     Type
  2419 ;;  cb              2   21[COMRAM] PTR FTN(PTR void ,)enum 
  2420 ;;		 -> rdBlkRegCompleteHandler(1), wr2RegCompleteHandler(1), wr1RegCompleteHandler(1), rd2RegCompleteHandler(1), 
  2421 ;;		 -> rd1RegCompleteHandler(1), NULL(1), 
  2422 ;;  ptr             2   23[COMRAM] PTR void 
  2423 ;;		 -> I2C_ReadDataBlock@bufferBlock(4), I2C_Write2ByteRegister@data(2), I2C_Write1ByteRegister@data(1), I2C_Read2ByteR
      +egister@returnValue(2), 
  2424 ;;		 -> I2C_Read1ByteRegister@returnValue(1), NULL(0), 
  2425 ;; Auto vars:     Size  Location     Type
  2426 ;;		None
  2427 ;; Return value:  Size  Location     Type
  2428 ;;                  1    wreg      void 
  2429 ;; Registers used:
  2430 ;;		wreg, fsr2l, fsr2h, status,2, status,0, prodl, prodh, cstack
  2431 ;; Tracked objects:
  2432 ;;		On entry : 0/0
  2433 ;;		On exit  : 0/0
  2434 ;;		Unchanged: 0/0
  2435 ;; Data sizes:     COMRAM   BANK0   BANK1   BANK2   BANK3   BANK4   BANK5   BANK6   BANK7   BANK8   BANK9  BANK10  BANK1
      +1  BANK12  BANK13  BANK14  BANK15
  2436 ;;      Params:         4       0       0       0       0       0       0       0       0       0       0       0       
      +0       0       0       0       0
  2437 ;;      Locals:         0       0       0       0       0       0       0       0       0       0       0       0       
      +0       0       0       0       0
  2438 ;;      Temps:          0       0       0       0       0       0       0       0       0       0       0       0       
      +0       0       0       0       0
  2439 ;;      Totals:         4       0       0       0       0       0       0       0       0       0       0       0       
      +0       0       0       0       0
  2440 ;;Total ram usage:        4 bytes
  2441 ;; Hardware stack levels used: 1
  2442 ;; Hardware stack levels required when called: 8
  2443 ;; This function calls:
  2444 ;;		_I2C_SetCallback
  2445 ;; This function is called by:
  2446 ;;		_I2C_Read1ByteRegister
  2447 ;;		_I2C_Read2ByteRegister
  2448 ;;		_I2C_Write1ByteRegister
  2449 ;;		_I2C_Write2ByteRegister
  2450 ;;		_I2C_ReadDataBlock
  2451 ;; This function uses a non-reentrant model
  2452 ;;
  2453                           
  2454                           	psect	text25
  2455   0021D2                     __ptext25:
  2456                           	callstack 0
  2457   0021D2                     _I2C_SetDataCompleteCallback:
  2458                           	callstack 20
  2459   0021D2                     
  2460                           ;mcc_generated_files/i2c_client/src/i2c_master.c: 274: void I2C_SetDataCompleteCallback(
      +                          i2c_callback_t cb, void *ptr);mcc_generated_files/i2c_client/src/i2c_master.c: 275: {;mc
      +                          c_generated_files/i2c_client/src/i2c_master.c: 276:     I2C_SetCallback(I2C_DATA_COMPLET
      +                          E, cb, ptr);
  2461   0021D2  C016  F011         	movff	I2C_SetDataCompleteCallback@cb,I2C_SetCallback@cb
  2462   0021D6  C017  F012         	movff	I2C_SetDataCompleteCallback@cb+1,I2C_SetCallback@cb+1
  2463   0021DA  C018  F013         	movff	I2C_SetDataCompleteCallback@ptr,I2C_SetCallback@ptr
  2464   0021DE  C019  F014         	movff	I2C_SetDataCompleteCallback@ptr+1,I2C_SetCallback@ptr+1
  2465   0021E2  0E00               	movlw	0
  2466   0021E4  ECCB  F00D         	call	_I2C_SetCallback
  2467   0021E8  0012               	return		;funcret
  2468   0021EA                     __end_of_I2C_SetDataCompleteCallback:
  2469                           	callstack 0
  2470                           
  2471 ;; *************** function _I2C_SetBuffer *****************
  2472 ;; Defined at:
  2473 ;;		line 264 in file "mcc_generated_files/i2c_client/src/i2c_master.c"
  2474 ;; Parameters:    Size  Location     Type
  2475 ;;  buffer          2   16[COMRAM] PTR void 
  2476 ;;		 -> I2C_ReadDataBlock@reg(1), I2C_ReadDataBlock@bufferBlock(4), I2C_Write2ByteRegister@reg(1), I2C_Write2ByteRegiste
      +r@data(2), 
  2477 ;;		 -> I2C_Write1Byte@reg(1), I2C_Write1ByteRegister@reg(1), I2C_Write1ByteRegister@data(1), I2C_Read2ByteRegister@reg(
      +1), 
  2478 ;;		 -> I2C_Read2ByteRegister@returnValue(2), I2C_Read1ByteRegister@reg(1), I2C_Read1ByteRegister@returnValue(1), NULL(0
      +), 
  2479 ;;  bufferSize      2   18[COMRAM] unsigned int 
  2480 ;; Auto vars:     Size  Location     Type
  2481 ;;		None
  2482 ;; Return value:  Size  Location     Type
  2483 ;;                  1    wreg      void 
  2484 ;; Registers used:
  2485 ;;		wreg, status,2, status,0
  2486 ;; Tracked objects:
  2487 ;;		On entry : 0/0
  2488 ;;		On exit  : 0/0
  2489 ;;		Unchanged: 0/0
  2490 ;; Data sizes:     COMRAM   BANK0   BANK1   BANK2   BANK3   BANK4   BANK5   BANK6   BANK7   BANK8   BANK9  BANK10  BANK1
      +1  BANK12  BANK13  BANK14  BANK15
  2491 ;;      Params:         4       0       0       0       0       0       0       0       0       0       0       0       
      +0       0       0       0       0
  2492 ;;      Locals:         0       0       0       0       0       0       0       0       0       0       0       0       
      +0       0       0       0       0
  2493 ;;      Temps:          0       0       0       0       0       0       0       0       0       0       0       0       
      +0       0       0       0       0
  2494 ;;      Totals:         4       0       0       0       0       0       0       0       0       0       0       0       
      +0       0       0       0       0
  2495 ;;Total ram usage:        4 bytes
  2496 ;; Hardware stack levels used: 1
  2497 ;; Hardware stack levels required when called: 7
  2498 ;; This function calls:
  2499 ;;		Nothing
  2500 ;; This function is called by:
  2501 ;;		_I2C_Read1ByteRegister
  2502 ;;		_I2C_Write1Byte
  2503 ;;		_I2C_Read2ByteRegister
  2504 ;;		_I2C_Write1ByteRegister
  2505 ;;		_I2C_Write2ByteRegister
  2506 ;;		_I2C_WriteNBytes
  2507 ;;		_I2C_ReadNBytes
  2508 ;;		_I2C_ReadDataBlock
  2509 ;; This function uses a non-reentrant model
  2510 ;;
  2511                           
  2512                           	psect	text26
  2513   0020D6                     __ptext26:
  2514                           	callstack 0
  2515   0020D6                     _I2C_SetBuffer:
  2516                           	callstack 21
  2517   0020D6                     
  2518                           ;mcc_generated_files/i2c_client/src/i2c_master.c: 264: void I2C_SetBuffer(void *buffer, 
      +                          size_t bufferSize);mcc_generated_files/i2c_client/src/i2c_master.c: 265: {;mcc_generated
      +                          _files/i2c_client/src/i2c_master.c: 266:     if(I2C_Status.bufferFree)
  2519   0020D6  0100               	movlb	0	; () banked
  2520   0020D8  A783               	btfss	(_I2C_Status+35)& (0+255),3,b
  2521   0020DA  EF71  F010         	goto	u1601
  2522   0020DE  EF73  F010         	goto	u1600
  2523   0020E2                     u1601:
  2524   0020E2  EF7C  F010         	goto	l187
  2525   0020E6                     u1600:
  2526   0020E6                     
  2527                           ; BSR set to: 0
  2528                           ;mcc_generated_files/i2c_client/src/i2c_master.c: 267:     {;mcc_generated_files/i2c_cli
      +                          ent/src/i2c_master.c: 268:         I2C_Status.data_ptr = buffer;
  2529   0020E6  C011  F07D         	movff	I2C_SetBuffer@buffer,_I2C_Status+29
  2530   0020EA  C012  F07E         	movff	I2C_SetBuffer@buffer+1,_I2C_Status+30
  2531   0020EE                     
  2532                           ; BSR set to: 0
  2533                           ;mcc_generated_files/i2c_client/src/i2c_master.c: 269:         I2C_Status.data_length = 
      +                          bufferSize;
  2534   0020EE  C013  F07F         	movff	I2C_SetBuffer@bufferSize,_I2C_Status+31
  2535   0020F2  C014  F080         	movff	I2C_SetBuffer@bufferSize+1,_I2C_Status+32
  2536   0020F6                     
  2537                           ; BSR set to: 0
  2538                           ;mcc_generated_files/i2c_client/src/i2c_master.c: 270:         I2C_Status.bufferFree = 0
      +                          ;
  2539   0020F6  9783               	bcf	(_I2C_Status+35)& (0+255),3,b
  2540   0020F8                     l187:
  2541                           
  2542                           ; BSR set to: 0
  2543   0020F8  0012               	return		;funcret
  2544   0020FA                     __end_of_I2C_SetBuffer:
  2545                           	callstack 0
  2546                           
  2547 ;; *************** function _I2C_SetAddressNackCallback *****************
  2548 ;; Defined at:
  2549 ;;		line 284 in file "mcc_generated_files/i2c_client/src/i2c_master.c"
  2550 ;; Parameters:    Size  Location     Type
  2551 ;;  cb              2   21[COMRAM] PTR FTN(PTR void ,)enum 
  2552 ;;		 -> NULL(1), 
  2553 ;;  ptr             2   23[COMRAM] PTR void 
  2554 ;;		 -> NULL(0), 
  2555 ;; Auto vars:     Size  Location     Type
  2556 ;;		None
  2557 ;; Return value:  Size  Location     Type
  2558 ;;                  1    wreg      void 
  2559 ;; Registers used:
  2560 ;;		wreg, fsr2l, fsr2h, status,2, status,0, prodl, prodh, cstack
  2561 ;; Tracked objects:
  2562 ;;		On entry : 0/0
  2563 ;;		On exit  : 0/0
  2564 ;;		Unchanged: 0/0
  2565 ;; Data sizes:     COMRAM   BANK0   BANK1   BANK2   BANK3   BANK4   BANK5   BANK6   BANK7   BANK8   BANK9  BANK10  BANK1
      +1  BANK12  BANK13  BANK14  BANK15
  2566 ;;      Params:         4       0       0       0       0       0       0       0       0       0       0       0       
      +0       0       0       0       0
  2567 ;;      Locals:         0       0       0       0       0       0       0       0       0       0       0       0       
      +0       0       0       0       0
  2568 ;;      Temps:          0       0       0       0       0       0       0       0       0       0       0       0       
      +0       0       0       0       0
  2569 ;;      Totals:         4       0       0       0       0       0       0       0       0       0       0       0       
      +0       0       0       0       0
  2570 ;;Total ram usage:        4 bytes
  2571 ;; Hardware stack levels used: 1
  2572 ;; Hardware stack levels required when called: 8
  2573 ;; This function calls:
  2574 ;;		_I2C_SetCallback
  2575 ;; This function is called by:
  2576 ;;		_I2C_Read1ByteRegister
  2577 ;;		_I2C_Write1Byte
  2578 ;;		_I2C_Read2ByteRegister
  2579 ;;		_I2C_Write1ByteRegister
  2580 ;;		_I2C_Write2ByteRegister
  2581 ;;		_I2C_WriteNBytes
  2582 ;;		_I2C_ReadDataBlock
  2583 ;; This function uses a non-reentrant model
  2584 ;;
  2585                           
  2586                           	psect	text27
  2587   0021EA                     __ptext27:
  2588                           	callstack 0
  2589   0021EA                     _I2C_SetAddressNackCallback:
  2590                           	callstack 20
  2591   0021EA                     
  2592                           ;mcc_generated_files/i2c_client/src/i2c_master.c: 284: void I2C_SetAddressNackCallback(i
      +                          2c_callback_t cb, void *ptr);mcc_generated_files/i2c_client/src/i2c_master.c: 285: {;mcc
      +                          _generated_files/i2c_client/src/i2c_master.c: 286:     I2C_SetCallback(I2C_ADDR_NACK, cb
      +                          , ptr);
  2593   0021EA  C016  F011         	movff	I2C_SetAddressNackCallback@cb,I2C_SetCallback@cb
  2594   0021EE  C017  F012         	movff	I2C_SetAddressNackCallback@cb+1,I2C_SetCallback@cb+1
  2595   0021F2  C018  F013         	movff	I2C_SetAddressNackCallback@ptr,I2C_SetCallback@ptr
  2596   0021F6  C019  F014         	movff	I2C_SetAddressNackCallback@ptr+1,I2C_SetCallback@ptr+1
  2597   0021FA  0E02               	movlw	2
  2598   0021FC  ECCB  F00D         	call	_I2C_SetCallback
  2599   002200  0012               	return		;funcret
  2600   002202                     __end_of_I2C_SetAddressNackCallback:
  2601                           	callstack 0
  2602                           
  2603 ;; *************** function _I2C_SetCallback *****************
  2604 ;; Defined at:
  2605 ;;		line 304 in file "mcc_generated_files/i2c_client/src/i2c_master.c"
  2606 ;; Parameters:    Size  Location     Type
  2607 ;;  idx             1    wreg     enum E3152
  2608 ;;  cb              2   16[COMRAM] PTR FTN(PTR void ,)enum 
  2609 ;;		 -> rdBlkRegCompleteHandler(1), wr2RegCompleteHandler(1), wr1RegCompleteHandler(1), rd2RegCompleteHandler(1), 
  2610 ;;		 -> rd1RegCompleteHandler(1), NULL(1), 
  2611 ;;  ptr             2   18[COMRAM] PTR void 
  2612 ;;		 -> I2C_ReadDataBlock@bufferBlock(4), I2C_Write2ByteRegister@data(2), I2C_Write1ByteRegister@data(1), I2C_Read2ByteR
      +egister@returnValue(2), 
  2613 ;;		 -> I2C_Read1ByteRegister@returnValue(1), NULL(0), 
  2614 ;; Auto vars:     Size  Location     Type
  2615 ;;  idx             1   20[COMRAM] enum E3152
  2616 ;; Return value:  Size  Location     Type
  2617 ;;                  1    wreg      void 
  2618 ;; Registers used:
  2619 ;;		wreg, fsr2l, fsr2h, status,2, status,0, prodl, prodh
  2620 ;; Tracked objects:
  2621 ;;		On entry : 0/0
  2622 ;;		On exit  : 0/0
  2623 ;;		Unchanged: 0/0
  2624 ;; Data sizes:     COMRAM   BANK0   BANK1   BANK2   BANK3   BANK4   BANK5   BANK6   BANK7   BANK8   BANK9  BANK10  BANK1
      +1  BANK12  BANK13  BANK14  BANK15
  2625 ;;      Params:         4       0       0       0       0       0       0       0       0       0       0       0       
      +0       0       0       0       0
  2626 ;;      Locals:         1       0       0       0       0       0       0       0       0       0       0       0       
      +0       0       0       0       0
  2627 ;;      Temps:          0       0       0       0       0       0       0       0       0       0       0       0       
      +0       0       0       0       0
  2628 ;;      Totals:         5       0       0       0       0       0       0       0       0       0       0       0       
      +0       0       0       0       0
  2629 ;;Total ram usage:        5 bytes
  2630 ;; Hardware stack levels used: 1
  2631 ;; Hardware stack levels required when called: 7
  2632 ;; This function calls:
  2633 ;;		Nothing
  2634 ;; This function is called by:
  2635 ;;		_I2C_SetDataCompleteCallback
  2636 ;;		_I2C_SetAddressNackCallback
  2637 ;;		_I2C_SetWriteCollisionCallback
  2638 ;;		_I2C_SetDataNackCallback
  2639 ;;		_I2C_SetTimeoutCallback
  2640 ;; This function uses a non-reentrant model
  2641 ;;
  2642                           
  2643                           	psect	text28
  2644   001B96                     __ptext28:
  2645                           	callstack 0
  2646   001B96                     _I2C_SetCallback:
  2647                           	callstack 20
  2648                           
  2649                           ;incstack = 0
  2650                           ;I2C_SetCallback@idx stored from wreg
  2651   001B96  6E15               	movwf	I2C_SetCallback@idx^0,c
  2652   001B98                     
  2653                           ;mcc_generated_files/i2c_client/src/i2c_master.c: 304: static void I2C_SetCallback(i2c_c
      +                          allbackIndex_t idx, i2c_callback_t cb, void *ptr);mcc_generated_files/i2c_client/src/i2c
      +                          _master.c: 305: {;mcc_generated_files/i2c_client/src/i2c_master.c: 306:     if(cb)
  2654   001B98  5011               	movf	I2C_SetCallback@cb^0,w,c
  2655   001B9A  1012               	iorwf	(I2C_SetCallback@cb+1)^0,w,c
  2656   001B9C  B4D8               	btfsc	status,2,c
  2657   001B9E  EFD3  F00D         	goto	u1411
  2658   001BA2  EFD5  F00D         	goto	u1410
  2659   001BA6                     u1411:
  2660   001BA6  EFEB  F00D         	goto	l3234
  2661   001BAA                     u1410:
  2662   001BAA                     
  2663                           ;mcc_generated_files/i2c_client/src/i2c_master.c: 307:     {;mcc_generated_files/i2c_cli
      +                          ent/src/i2c_master.c: 308:         I2C_Status.callbackTable[idx] = cb;
  2664   001BAA  5015               	movf	I2C_SetCallback@idx^0,w,c
  2665   001BAC  0D02               	mullw	2
  2666   001BAE  50F3               	movf	243,w,c
  2667   001BB0  0F60               	addlw	low _I2C_Status
  2668   001BB2  6ED9               	movwf	fsr2l,c
  2669   001BB4  6ADA               	clrf	fsr2h,c
  2670   001BB6  C011  FFDE         	movff	I2C_SetCallback@cb,postinc2
  2671   001BBA  C012  FFDD         	movff	I2C_SetCallback@cb+1,postdec2
  2672                           
  2673                           ;mcc_generated_files/i2c_client/src/i2c_master.c: 309:         I2C_Status.callbackPayloa
      +                          d[idx] = ptr;
  2674   001BBE  5015               	movf	I2C_SetCallback@idx^0,w,c
  2675   001BC0  0D02               	mullw	2
  2676   001BC2  50F3               	movf	243,w,c
  2677   001BC4  0F6C               	addlw	low (_I2C_Status+12)
  2678   001BC6  6ED9               	movwf	fsr2l,c
  2679   001BC8  6ADA               	clrf	fsr2h,c
  2680   001BCA  C013  FFDE         	movff	I2C_SetCallback@ptr,postinc2
  2681   001BCE  C014  FFDD         	movff	I2C_SetCallback@ptr+1,postdec2
  2682                           
  2683                           ;mcc_generated_files/i2c_client/src/i2c_master.c: 310:     }
  2684   001BD2  EFFD  F00D         	goto	l210
  2685   001BD6                     l3234:
  2686                           
  2687                           ;mcc_generated_files/i2c_client/src/i2c_master.c: 312:     {;mcc_generated_files/i2c_cli
      +                          ent/src/i2c_master.c: 313:         I2C_Status.callbackTable[idx] = I2C_CallbackReturnSto
      +                          p;
  2688   001BD6  5015               	movf	I2C_SetCallback@idx^0,w,c
  2689   001BD8  0D02               	mullw	2
  2690   001BDA  50F3               	movf	243,w,c
  2691   001BDC  0F60               	addlw	low _I2C_Status
  2692   001BDE  6ED9               	movwf	fsr2l,c
  2693   001BE0  6ADA               	clrf	fsr2h,c
  2694   001BE2  0EBA               	movlw	low _I2C_CallbackReturnStop
  2695   001BE4  6EDE               	movwf	postinc2,c
  2696   001BE6  0E23               	movlw	high _I2C_CallbackReturnStop
  2697   001BE8  6EDD               	movwf	postdec2,c
  2698                           
  2699                           ;mcc_generated_files/i2c_client/src/i2c_master.c: 314:         I2C_Status.callbackPayloa
      +                          d[idx] = ((void*)0);
  2700   001BEA  5015               	movf	I2C_SetCallback@idx^0,w,c
  2701   001BEC  0D02               	mullw	2
  2702   001BEE  50F3               	movf	243,w,c
  2703   001BF0  0F6C               	addlw	low (_I2C_Status+12)
  2704   001BF2  6ED9               	movwf	fsr2l,c
  2705   001BF4  6ADA               	clrf	fsr2h,c
  2706   001BF6  6ADE               	clrf	postinc2,c
  2707   001BF8  6ADD               	clrf	postdec2,c
  2708   001BFA                     l210:
  2709   001BFA  0012               	return		;funcret
  2710   001BFC                     __end_of_I2C_SetCallback:
  2711                           	callstack 0
  2712                           
  2713 ;; *************** function _I2C_Open *****************
  2714 ;; Defined at:
  2715 ;;		line 176 in file "mcc_generated_files/i2c_client/src/i2c_master.c"
  2716 ;; Parameters:    Size  Location     Type
  2717 ;;  address         1    wreg     unsigned char 
  2718 ;; Auto vars:     Size  Location     Type
  2719 ;;  address         1   18[COMRAM] unsigned char 
  2720 ;;  returnValue     1   19[COMRAM] enum E358
  2721 ;; Return value:  Size  Location     Type
  2722 ;;                  1    wreg      enum E358
  2723 ;; Registers used:
  2724 ;;		wreg, status,2, status,0, cstack
  2725 ;; Tracked objects:
  2726 ;;		On entry : 0/0
  2727 ;;		On exit  : 0/0
  2728 ;;		Unchanged: 0/0
  2729 ;; Data sizes:     COMRAM   BANK0   BANK1   BANK2   BANK3   BANK4   BANK5   BANK6   BANK7   BANK8   BANK9  BANK10  BANK1
      +1  BANK12  BANK13  BANK14  BANK15
  2730 ;;      Params:         0       0       0       0       0       0       0       0       0       0       0       0       
      +0       0       0       0       0
  2731 ;;      Locals:         2       0       0       0       0       0       0       0       0       0       0       0       
      +0       0       0       0       0
  2732 ;;      Temps:          0       0       0       0       0       0       0       0       0       0       0       0       
      +0       0       0       0       0
  2733 ;;      Totals:         2       0       0       0       0       0       0       0       0       0       0       0       
      +0       0       0       0       0
  2734 ;;Total ram usage:        2 bytes
  2735 ;; Hardware stack levels used: 1
  2736 ;; Hardware stack levels required when called: 8
  2737 ;; This function calls:
  2738 ;;		_I2C_MasterClearIrq
  2739 ;;		_I2C_MasterEnableIrq
  2740 ;;		_I2C_MasterOpen
  2741 ;;		_I2C_SetInterruptHandler
  2742 ;; This function is called by:
  2743 ;;		_I2C_Read1ByteRegister
  2744 ;;		_I2C_Write1Byte
  2745 ;;		_I2C_Read2ByteRegister
  2746 ;;		_I2C_Write1ByteRegister
  2747 ;;		_I2C_Write2ByteRegister
  2748 ;;		_I2C_WriteNBytes
  2749 ;;		_I2C_ReadNBytes
  2750 ;;		_I2C_ReadDataBlock
  2751 ;; This function uses a non-reentrant model
  2752 ;;
  2753                           
  2754                           	psect	text29
  2755   00184C                     __ptext29:
  2756                           	callstack 0
  2757   00184C                     _I2C_Open:
  2758                           	callstack 20
  2759                           
  2760                           ;incstack = 0
  2761                           ;I2C_Open@address stored from wreg
  2762   00184C  6E13               	movwf	I2C_Open@address^0,c
  2763   00184E                     
  2764                           ;mcc_generated_files/i2c_client/src/i2c_master.c: 176: i2c_error_t I2C_Open(i2c_address_
      +                          t address);mcc_generated_files/i2c_client/src/i2c_master.c: 177: {;mcc_generated_files/i
      +                          2c_client/src/i2c_master.c: 178:     i2c_error_t returnValue = I2C_BUSY;
  2765   00184E  0E01               	movlw	1
  2766   001850  6E14               	movwf	I2C_Open@returnValue^0,c
  2767   001852                     
  2768                           ;mcc_generated_files/i2c_client/src/i2c_master.c: 180:     if(!I2C_Status.inUse)
  2769   001852  0100               	movlb	0	; () banked
  2770   001854  B583               	btfsc	(_I2C_Status+35)& (0+255),2,b
  2771   001856  EF2F  F00C         	goto	u1581
  2772   00185A  EF31  F00C         	goto	u1580
  2773   00185E                     u1581:
  2774   00185E  EF73  F00C         	goto	l3388
  2775   001862                     u1580:
  2776   001862                     
  2777                           ; BSR set to: 0
  2778                           ;mcc_generated_files/i2c_client/src/i2c_master.c: 181:     {;mcc_generated_files/i2c_cli
      +                          ent/src/i2c_master.c: 182:         I2C_Status.address = address;
  2779   001862  C013  F07C         	movff	I2C_Open@address,_I2C_Status+28
  2780   001866                     
  2781                           ; BSR set to: 0
  2782                           ;mcc_generated_files/i2c_client/src/i2c_master.c: 183:         I2C_Status.busy = 0;
  2783   001866  9383               	bcf	(_I2C_Status+35)& (0+255),1,b
  2784   001868                     
  2785                           ; BSR set to: 0
  2786                           ;mcc_generated_files/i2c_client/src/i2c_master.c: 184:         I2C_Status.inUse = 1;
  2787   001868  8583               	bsf	(_I2C_Status+35)& (0+255),2,b
  2788   00186A                     
  2789                           ; BSR set to: 0
  2790                           ;mcc_generated_files/i2c_client/src/i2c_master.c: 185:         I2C_Status.addressNackChe
      +                          ck = 0;
  2791   00186A  9183               	bcf	(_I2C_Status+35)& (0+255),0,b
  2792   00186C                     
  2793                           ; BSR set to: 0
  2794                           ;mcc_generated_files/i2c_client/src/i2c_master.c: 186:         I2C_Status.state = I2C_RE
      +                          SET;
  2795   00186C  0E0E               	movlw	14
  2796   00186E  6F81               	movwf	(_I2C_Status+33)& (0+255),b
  2797   001870                     
  2798                           ; BSR set to: 0
  2799                           ;mcc_generated_files/i2c_client/src/i2c_master.c: 187:         I2C_Status.time_out_value
      +                           = 500;
  2800   001870  0E01               	movlw	1
  2801   001872  6F7B               	movwf	(_I2C_Status+27)& (0+255),b
  2802   001874  0EF4               	movlw	244
  2803   001876  6F7A               	movwf	(_I2C_Status+26)& (0+255),b
  2804   001878                     
  2805                           ; BSR set to: 0
  2806                           ;mcc_generated_files/i2c_client/src/i2c_master.c: 188:         I2C_Status.bufferFree = 1
      +                          ;
  2807   001878  8783               	bsf	(_I2C_Status+35)& (0+255),3,b
  2808   00187A                     
  2809                           ; BSR set to: 0
  2810                           ;mcc_generated_files/i2c_client/src/i2c_master.c: 191:         I2C_Status.callbackTable[
      +                          I2C_DATA_COMPLETE]=I2C_CallbackReturnStop;
  2811   00187A  0EBA               	movlw	low _I2C_CallbackReturnStop
  2812   00187C  6F60               	movwf	_I2C_Status& (0+255),b
  2813   00187E  0E23               	movlw	high _I2C_CallbackReturnStop
  2814   001880  6F61               	movwf	(_I2C_Status+1)& (0+255),b
  2815   001882                     
  2816                           ; BSR set to: 0
  2817                           ;mcc_generated_files/i2c_client/src/i2c_master.c: 192:         I2C_Status.callbackPayloa
      +                          d[I2C_DATA_COMPLETE] = ((void*)0);
  2818   001882  0E00               	movlw	0
  2819   001884  6F6C               	movwf	(_I2C_Status+12)& (0+255),b
  2820   001886  0E00               	movlw	0
  2821   001888  6F6D               	movwf	(_I2C_Status+13)& (0+255),b
  2822   00188A                     
  2823                           ; BSR set to: 0
  2824                           ;mcc_generated_files/i2c_client/src/i2c_master.c: 193:         I2C_Status.callbackTable[
      +                          I2C_WRITE_COLLISION]=I2C_CallbackReturnStop;
  2825   00188A  0EBA               	movlw	low _I2C_CallbackReturnStop
  2826   00188C  6F62               	movwf	(_I2C_Status+2)& (0+255),b
  2827   00188E  0E23               	movlw	high _I2C_CallbackReturnStop
  2828   001890  6F63               	movwf	(_I2C_Status+3)& (0+255),b
  2829   001892                     
  2830                           ; BSR set to: 0
  2831                           ;mcc_generated_files/i2c_client/src/i2c_master.c: 194:         I2C_Status.callbackPayloa
      +                          d[I2C_WRITE_COLLISION] = ((void*)0);
  2832   001892  0E00               	movlw	0
  2833   001894  6F6E               	movwf	(_I2C_Status+14)& (0+255),b
  2834   001896  0E00               	movlw	0
  2835   001898  6F6F               	movwf	(_I2C_Status+15)& (0+255),b
  2836   00189A                     
  2837                           ; BSR set to: 0
  2838                           ;mcc_generated_files/i2c_client/src/i2c_master.c: 195:         I2C_Status.callbackTable[
      +                          I2C_ADDR_NACK]=I2C_CallbackReturnStop;
  2839   00189A  0EBA               	movlw	low _I2C_CallbackReturnStop
  2840   00189C  6F64               	movwf	(_I2C_Status+4)& (0+255),b
  2841   00189E  0E23               	movlw	high _I2C_CallbackReturnStop
  2842   0018A0  6F65               	movwf	(_I2C_Status+5)& (0+255),b
  2843   0018A2                     
  2844                           ; BSR set to: 0
  2845                           ;mcc_generated_files/i2c_client/src/i2c_master.c: 196:         I2C_Status.callbackPayloa
      +                          d[I2C_ADDR_NACK] = ((void*)0);
  2846   0018A2  0E00               	movlw	0
  2847   0018A4  6F70               	movwf	(_I2C_Status+16)& (0+255),b
  2848   0018A6  0E00               	movlw	0
  2849   0018A8  6F71               	movwf	(_I2C_Status+17)& (0+255),b
  2850   0018AA                     
  2851                           ; BSR set to: 0
  2852                           ;mcc_generated_files/i2c_client/src/i2c_master.c: 197:         I2C_Status.callbackTable[
      +                          I2C_DATA_NACK]=I2C_CallbackReturnStop;
  2853   0018AA  0EBA               	movlw	low _I2C_CallbackReturnStop
  2854   0018AC  6F66               	movwf	(_I2C_Status+6)& (0+255),b
  2855   0018AE  0E23               	movlw	high _I2C_CallbackReturnStop
  2856   0018B0  6F67               	movwf	(_I2C_Status+7)& (0+255),b
  2857   0018B2                     
  2858                           ; BSR set to: 0
  2859                           ;mcc_generated_files/i2c_client/src/i2c_master.c: 198:         I2C_Status.callbackPayloa
      +                          d[I2C_DATA_NACK] = ((void*)0);
  2860   0018B2  0E00               	movlw	0
  2861   0018B4  6F72               	movwf	(_I2C_Status+18)& (0+255),b
  2862   0018B6  0E00               	movlw	0
  2863   0018B8  6F73               	movwf	(_I2C_Status+19)& (0+255),b
  2864   0018BA                     
  2865                           ; BSR set to: 0
  2866                           ;mcc_generated_files/i2c_client/src/i2c_master.c: 199:         I2C_Status.callbackTable[
      +                          I2C_TIMEOUT]=I2C_CallbackReturnReset;
  2867   0018BA  0EB6               	movlw	low _I2C_CallbackReturnReset
  2868   0018BC  6F68               	movwf	(_I2C_Status+8)& (0+255),b
  2869   0018BE  0E23               	movlw	high _I2C_CallbackReturnReset
  2870   0018C0  6F69               	movwf	(_I2C_Status+9)& (0+255),b
  2871   0018C2                     
  2872                           ; BSR set to: 0
  2873                           ;mcc_generated_files/i2c_client/src/i2c_master.c: 200:         I2C_Status.callbackPayloa
      +                          d[I2C_TIMEOUT] = ((void*)0);
  2874   0018C2  0E00               	movlw	0
  2875   0018C4  6F74               	movwf	(_I2C_Status+20)& (0+255),b
  2876   0018C6  0E00               	movlw	0
  2877   0018C8  6F75               	movwf	(_I2C_Status+21)& (0+255),b
  2878   0018CA                     
  2879                           ; BSR set to: 0
  2880                           ;mcc_generated_files/i2c_client/src/i2c_master.c: 202:         I2C_SetInterruptHandler(I
      +                          2C_MasterIsr);
  2881   0018CA  0E78               	movlw	low _I2C_MasterIsr
  2882   0018CC  6E11               	movwf	I2C_SetInterruptHandler@InterruptHandler^0,c
  2883   0018CE  0E23               	movlw	high _I2C_MasterIsr
  2884   0018D0  6E12               	movwf	(I2C_SetInterruptHandler@InterruptHandler+1)^0,c
  2885   0018D2  EC8C  F011         	call	_I2C_SetInterruptHandler	;wreg free
  2886   0018D6                     
  2887                           ;mcc_generated_files/i2c_client/src/i2c_master.c: 203:         I2C_MasterClearIrq();
  2888   0018D6  ECD1  F011         	call	_I2C_MasterClearIrq	;wreg free
  2889   0018DA                     
  2890                           ;mcc_generated_files/i2c_client/src/i2c_master.c: 204:         I2C_MasterOpen();
  2891   0018DA  ECA0  F010         	call	_I2C_MasterOpen	;wreg free
  2892   0018DE                     
  2893                           ;mcc_generated_files/i2c_client/src/i2c_master.c: 205:         I2C_MasterEnableIrq();
  2894   0018DE  ECC9  F011         	call	_I2C_MasterEnableIrq	;wreg free
  2895   0018E2                     
  2896                           ;mcc_generated_files/i2c_client/src/i2c_master.c: 206:         returnValue = I2C_NOERR;
  2897   0018E2  0E00               	movlw	0
  2898   0018E4  6E14               	movwf	I2C_Open@returnValue^0,c
  2899   0018E6                     l3388:
  2900                           
  2901                           ;mcc_generated_files/i2c_client/src/i2c_master.c: 208:     return returnValue;
  2902   0018E6  5014               	movf	I2C_Open@returnValue^0,w,c
  2903   0018E8  0012               	return		;funcret
  2904   0018EA                     __end_of_I2C_Open:
  2905                           	callstack 0
  2906                           
  2907 ;; *************** function _I2C_SetInterruptHandler *****************
  2908 ;; Defined at:
  2909 ;;		line 299 in file "mcc_generated_files/i2c_client/src/i2c_master.c"
  2910 ;; Parameters:    Size  Location     Type
  2911 ;;  InterruptHan    2   16[COMRAM] PTR FTN()void 
  2912 ;;		 -> I2C_MasterIsr(1), 
  2913 ;; Auto vars:     Size  Location     Type
  2914 ;;		None
  2915 ;; Return value:  Size  Location     Type
  2916 ;;                  1    wreg      void 
  2917 ;; Registers used:
  2918 ;;		wreg, status,2, status,0
  2919 ;; Tracked objects:
  2920 ;;		On entry : 0/0
  2921 ;;		On exit  : 0/0
  2922 ;;		Unchanged: 0/0
  2923 ;; Data sizes:     COMRAM   BANK0   BANK1   BANK2   BANK3   BANK4   BANK5   BANK6   BANK7   BANK8   BANK9  BANK10  BANK1
      +1  BANK12  BANK13  BANK14  BANK15
  2924 ;;      Params:         2       0       0       0       0       0       0       0       0       0       0       0       
      +0       0       0       0       0
  2925 ;;      Locals:         0       0       0       0       0       0       0       0       0       0       0       0       
      +0       0       0       0       0
  2926 ;;      Temps:          0       0       0       0       0       0       0       0       0       0       0       0       
      +0       0       0       0       0
  2927 ;;      Totals:         2       0       0       0       0       0       0       0       0       0       0       0       
      +0       0       0       0       0
  2928 ;;Total ram usage:        2 bytes
  2929 ;; Hardware stack levels used: 1
  2930 ;; Hardware stack levels required when called: 7
  2931 ;; This function calls:
  2932 ;;		Nothing
  2933 ;; This function is called by:
  2934 ;;		_I2C_Open
  2935 ;; This function uses a non-reentrant model
  2936 ;;
  2937                           
  2938                           	psect	text30
  2939   002318                     __ptext30:
  2940                           	callstack 0
  2941   002318                     _I2C_SetInterruptHandler:
  2942                           	callstack 20
  2943   002318                     
  2944                           ;mcc_generated_files/i2c_client/src/i2c_master.c: 299: void I2C_SetInterruptHandler(void
      +                           (* InterruptHandler)(void));mcc_generated_files/i2c_client/src/i2c_master.c: 300: {;mcc
      +                          _generated_files/i2c_client/src/i2c_master.c: 301:     MSSP_InterruptHandler = Interrupt
      +                          Handler;
  2945   002318  C011  F051         	movff	I2C_SetInterruptHandler@InterruptHandler,_MSSP_InterruptHandler
  2946   00231C  C012  F052         	movff	I2C_SetInterruptHandler@InterruptHandler+1,_MSSP_InterruptHandler+1
  2947   002320  0012               	return		;funcret
  2948   002322                     __end_of_I2C_SetInterruptHandler:
  2949                           	callstack 0
  2950                           
  2951 ;; *************** function _I2C_MasterOpen *****************
  2952 ;; Defined at:
  2953 ;;		line 544 in file "mcc_generated_files/i2c_client/src/i2c_master.c"
  2954 ;; Parameters:    Size  Location     Type
  2955 ;;		None
  2956 ;; Auto vars:     Size  Location     Type
  2957 ;;		None
  2958 ;; Return value:  Size  Location     Type
  2959 ;;                  1    wreg      _Bool 
  2960 ;; Registers used:
  2961 ;;		wreg, status,2
  2962 ;; Tracked objects:
  2963 ;;		On entry : 0/0
  2964 ;;		On exit  : 0/0
  2965 ;;		Unchanged: 0/0
  2966 ;; Data sizes:     COMRAM   BANK0   BANK1   BANK2   BANK3   BANK4   BANK5   BANK6   BANK7   BANK8   BANK9  BANK10  BANK1
      +1  BANK12  BANK13  BANK14  BANK15
  2967 ;;      Params:         0       0       0       0       0       0       0       0       0       0       0       0       
      +0       0       0       0       0
  2968 ;;      Locals:         0       0       0       0       0       0       0       0       0       0       0       0       
      +0       0       0       0       0
  2969 ;;      Temps:          0       0       0       0       0       0       0       0       0       0       0       0       
      +0       0       0       0       0
  2970 ;;      Totals:         0       0       0       0       0       0       0       0       0       0       0       0       
      +0       0       0       0       0
  2971 ;;Total ram usage:        0 bytes
  2972 ;; Hardware stack levels used: 1
  2973 ;; Hardware stack levels required when called: 7
  2974 ;; This function calls:
  2975 ;;		Nothing
  2976 ;; This function is called by:
  2977 ;;		_I2C_Open
  2978 ;; This function uses a non-reentrant model
  2979 ;;
  2980                           
  2981                           	psect	text31
  2982   002140                     __ptext31:
  2983                           	callstack 0
  2984   002140                     _I2C_MasterOpen:
  2985                           	callstack 20
  2986   002140                     
  2987                           ;mcc_generated_files/i2c_client/src/i2c_master.c: 546:     if(!SSPCON1bits.SSPEN)
  2988   002140  BAC6               	btfsc	198,5,c	;volatile
  2989   002142  EFA5  F010         	goto	u1381
  2990   002146  EFA7  F010         	goto	u1380
  2991   00214A                     u1381:
  2992   00214A  EFB0  F010         	goto	l329
  2993   00214E                     u1380:
  2994   00214E                     
  2995                           ;mcc_generated_files/i2c_client/src/i2c_master.c: 547:     {;mcc_generated_files/i2c_cli
      +                          ent/src/i2c_master.c: 548:         SSPSTAT = 0x80;
  2996   00214E  0E80               	movlw	128
  2997   002150  6EC7               	movwf	199,c	;volatile
  2998                           
  2999                           ;mcc_generated_files/i2c_client/src/i2c_master.c: 549:         SSPCON1 = 0x08;
  3000   002152  0E08               	movlw	8
  3001   002154  6EC6               	movwf	198,c	;volatile
  3002                           
  3003                           ;mcc_generated_files/i2c_client/src/i2c_master.c: 550:         SSPCON2 = 0x00;
  3004   002156  0E00               	movlw	0
  3005   002158  6EC5               	movwf	197,c	;volatile
  3006                           
  3007                           ;mcc_generated_files/i2c_client/src/i2c_master.c: 551:         SSPADD = 0x27;
  3008   00215A  0E27               	movlw	39
  3009   00215C  6EC8               	movwf	200,c	;volatile
  3010   00215E                     
  3011                           ;mcc_generated_files/i2c_client/src/i2c_master.c: 552:         SSPCON1bits.SSPEN = 1;
  3012   00215E  8AC6               	bsf	198,5,c	;volatile
  3013   002160                     l329:
  3014   002160  0012               	return		;funcret
  3015   002162                     __end_of_I2C_MasterOpen:
  3016                           	callstack 0
  3017                           
  3018 ;; *************** function _I2C_MasterEnableIrq *****************
  3019 ;; Defined at:
  3020 ;;		line 627 in file "mcc_generated_files/i2c_client/src/i2c_master.c"
  3021 ;; Parameters:    Size  Location     Type
  3022 ;;		None
  3023 ;; Auto vars:     Size  Location     Type
  3024 ;;		None
  3025 ;; Return value:  Size  Location     Type
  3026 ;;                  1    wreg      void 
  3027 ;; Registers used:
  3028 ;;		None
  3029 ;; Tracked objects:
  3030 ;;		On entry : 0/0
  3031 ;;		On exit  : 0/0
  3032 ;;		Unchanged: 0/0
  3033 ;; Data sizes:     COMRAM   BANK0   BANK1   BANK2   BANK3   BANK4   BANK5   BANK6   BANK7   BANK8   BANK9  BANK10  BANK1
      +1  BANK12  BANK13  BANK14  BANK15
  3034 ;;      Params:         0       0       0       0       0       0       0       0       0       0       0       0       
      +0       0       0       0       0
  3035 ;;      Locals:         0       0       0       0       0       0       0       0       0       0       0       0       
      +0       0       0       0       0
  3036 ;;      Temps:          0       0       0       0       0       0       0       0       0       0       0       0       
      +0       0       0       0       0
  3037 ;;      Totals:         0       0       0       0       0       0       0       0       0       0       0       0       
      +0       0       0       0       0
  3038 ;;Total ram usage:        0 bytes
  3039 ;; Hardware stack levels used: 1
  3040 ;; Hardware stack levels required when called: 7
  3041 ;; This function calls:
  3042 ;;		Nothing
  3043 ;; This function is called by:
  3044 ;;		_I2C_Open
  3045 ;;		_I2C_SetTimeOut
  3046 ;; This function uses a non-reentrant model
  3047 ;;
  3048                           
  3049                           	psect	text32
  3050   002392                     __ptext32:
  3051                           	callstack 0
  3052   002392                     _I2C_MasterEnableIrq:
  3053                           	callstack 20
  3054   002392                     
  3055                           ;mcc_generated_files/i2c_client/src/i2c_master.c: 629:     PIE1bits.SSPIE = 1;
  3056   002392  869D               	bsf	157,3,c	;volatile
  3057   002394  0012               	return		;funcret
  3058   002396                     __end_of_I2C_MasterEnableIrq:
  3059                           	callstack 0
  3060                           
  3061 ;; *************** function _I2C_MasterWrite *****************
  3062 ;; Defined at:
  3063 ;;		line 252 in file "mcc_generated_files/i2c_client/src/i2c_master.c"
  3064 ;; Parameters:    Size  Location     Type
  3065 ;;		None
  3066 ;; Auto vars:     Size  Location     Type
  3067 ;;		None
  3068 ;; Return value:  Size  Location     Type
  3069 ;;                  1    wreg      enum E358
  3070 ;; Registers used:
  3071 ;;		wreg, status,2, cstack
  3072 ;; Tracked objects:
  3073 ;;		On entry : 0/0
  3074 ;;		On exit  : 0/0
  3075 ;;		Unchanged: 0/0
  3076 ;; Data sizes:     COMRAM   BANK0   BANK1   BANK2   BANK3   BANK4   BANK5   BANK6   BANK7   BANK8   BANK9  BANK10  BANK1
      +1  BANK12  BANK13  BANK14  BANK15
  3077 ;;      Params:         0       0       0       0       0       0       0       0       0       0       0       0       
      +0       0       0       0       0
  3078 ;;      Locals:         0       0       0       0       0       0       0       0       0       0       0       0       
      +0       0       0       0       0
  3079 ;;      Temps:          0       0       0       0       0       0       0       0       0       0       0       0       
      +0       0       0       0       0
  3080 ;;      Totals:         0       0       0       0       0       0       0       0       0       0       0       0       
      +0       0       0       0       0
  3081 ;;Total ram usage:        0 bytes
  3082 ;; Hardware stack levels used: 1
  3083 ;; Hardware stack levels required when called: 9
  3084 ;; This function calls:
  3085 ;;		_I2C_MasterOperation
  3086 ;; This function is called by:
  3087 ;;		_I2C_Read1ByteRegister
  3088 ;;		_I2C_Write1Byte
  3089 ;;		_I2C_Read2ByteRegister
  3090 ;;		_I2C_Write1ByteRegister
  3091 ;;		_I2C_Write2ByteRegister
  3092 ;;		_I2C_WriteNBytes
  3093 ;;		_I2C_ReadDataBlock
  3094 ;; This function uses a non-reentrant model
  3095 ;;
  3096                           
  3097                           	psect	text33
  3098   002322                     __ptext33:
  3099                           	callstack 0
  3100   002322                     _I2C_MasterWrite:
  3101                           	callstack 19
  3102   002322                     
  3103                           ;mcc_generated_files/i2c_client/src/i2c_master.c: 254:     return I2C_MasterOperation(0)
      +                          ;;	Return value of _I2C_MasterWrite is never used
  3104   002322  0E00               	movlw	0
  3105   002324  ECFA  F00E         	call	_I2C_MasterOperation
  3106   002328  0012               	return		;funcret
  3107   00232A                     __end_of_I2C_MasterWrite:
  3108                           	callstack 0
  3109                           
  3110 ;; *************** function _I2C_MasterOperation *****************
  3111 ;; Defined at:
  3112 ;;		line 226 in file "mcc_generated_files/i2c_client/src/i2c_master.c"
  3113 ;; Parameters:    Size  Location     Type
  3114 ;;  read            1    wreg     _Bool 
  3115 ;; Auto vars:     Size  Location     Type
  3116 ;;  read            1   16[COMRAM] _Bool 
  3117 ;;  returnValue     1   17[COMRAM] enum E358
  3118 ;; Return value:  Size  Location     Type
  3119 ;;                  1    wreg      enum E358
  3120 ;; Registers used:
  3121 ;;		wreg, status,2, cstack
  3122 ;; Tracked objects:
  3123 ;;		On entry : 0/0
  3124 ;;		On exit  : 0/0
  3125 ;;		Unchanged: 0/0
  3126 ;; Data sizes:     COMRAM   BANK0   BANK1   BANK2   BANK3   BANK4   BANK5   BANK6   BANK7   BANK8   BANK9  BANK10  BANK1
      +1  BANK12  BANK13  BANK14  BANK15
  3127 ;;      Params:         0       0       0       0       0       0       0       0       0       0       0       0       
      +0       0       0       0       0
  3128 ;;      Locals:         2       0       0       0       0       0       0       0       0       0       0       0       
      +0       0       0       0       0
  3129 ;;      Temps:          0       0       0       0       0       0       0       0       0       0       0       0       
      +0       0       0       0       0
  3130 ;;      Totals:         2       0       0       0       0       0       0       0       0       0       0       0       
      +0       0       0       0       0
  3131 ;;Total ram usage:        2 bytes
  3132 ;; Hardware stack levels used: 1
  3133 ;; Hardware stack levels required when called: 8
  3134 ;; This function calls:
  3135 ;;		_I2C_MasterStart
  3136 ;; This function is called by:
  3137 ;;		_I2C_MasterWrite
  3138 ;;		_I2C_MasterRead
  3139 ;; This function uses a non-reentrant model
  3140 ;;
  3141                           
  3142                           	psect	text34
  3143   001DF4                     __ptext34:
  3144                           	callstack 0
  3145   001DF4                     _I2C_MasterOperation:
  3146                           	callstack 19
  3147                           
  3148                           ;incstack = 0
  3149                           ;I2C_MasterOperation@read stored from wreg
  3150   001DF4  6E11               	movwf	I2C_MasterOperation@read^0,c
  3151   001DF6                     
  3152                           ;mcc_generated_files/i2c_client/src/i2c_master.c: 226: i2c_error_t I2C_MasterOperation(_
      +                          Bool read);mcc_generated_files/i2c_client/src/i2c_master.c: 227: {;mcc_generated_files/i
      +                          2c_client/src/i2c_master.c: 228:     i2c_error_t returnValue = I2C_BUSY;
  3153   001DF6  0E01               	movlw	1
  3154   001DF8  6E12               	movwf	I2C_MasterOperation@returnValue^0,c
  3155   001DFA                     
  3156                           ;mcc_generated_files/i2c_client/src/i2c_master.c: 229:     if(!I2C_Status.busy)
  3157   001DFA  0100               	movlb	0	; () banked
  3158   001DFC  B383               	btfsc	(_I2C_Status+35)& (0+255),1,b
  3159   001DFE  EF03  F00F         	goto	u1391
  3160   001E02  EF05  F00F         	goto	u1390
  3161   001E06                     u1391:
  3162   001E06  EF18  F00F         	goto	l3226
  3163   001E0A                     u1390:
  3164   001E0A                     
  3165                           ; BSR set to: 0
  3166                           ;mcc_generated_files/i2c_client/src/i2c_master.c: 230:     {;mcc_generated_files/i2c_cli
      +                          ent/src/i2c_master.c: 231:         I2C_Status.busy = 1;
  3167   001E0A  8383               	bsf	(_I2C_Status+35)& (0+255),1,b
  3168   001E0C                     
  3169                           ; BSR set to: 0
  3170                           ;mcc_generated_files/i2c_client/src/i2c_master.c: 232:         returnValue = I2C_NOERR;
  3171   001E0C  0E00               	movlw	0
  3172   001E0E  6E12               	movwf	I2C_MasterOperation@returnValue^0,c
  3173   001E10                     
  3174                           ; BSR set to: 0
  3175                           ;mcc_generated_files/i2c_client/src/i2c_master.c: 234:         if(read)
  3176   001E10  5011               	movf	I2C_MasterOperation@read^0,w,c
  3177   001E12  B4D8               	btfsc	status,2,c
  3178   001E14  EF0E  F00F         	goto	u1401
  3179   001E18  EF10  F00F         	goto	u1400
  3180   001E1C                     u1401:
  3181   001E1C  EF14  F00F         	goto	l3222
  3182   001E20                     u1400:
  3183   001E20                     
  3184                           ; BSR set to: 0
  3185                           ;mcc_generated_files/i2c_client/src/i2c_master.c: 235:         {;mcc_generated_files/i2c
      +                          _client/src/i2c_master.c: 236:             I2C_Status.state = I2C_SEND_ADR_READ;
  3186   001E20  0E01               	movlw	1
  3187   001E22  6F81               	movwf	(_I2C_Status+33)& (0+255),b
  3188                           
  3189                           ;mcc_generated_files/i2c_client/src/i2c_master.c: 237:         }
  3190   001E24  EF16  F00F         	goto	l3224
  3191   001E28                     l3222:
  3192                           
  3193                           ; BSR set to: 0
  3194                           ;mcc_generated_files/i2c_client/src/i2c_master.c: 239:         {;mcc_generated_files/i2c
      +                          _client/src/i2c_master.c: 240:             I2C_Status.state = I2C_SEND_ADR_WRITE;
  3195   001E28  0E02               	movlw	2
  3196   001E2A  6F81               	movwf	(_I2C_Status+33)& (0+255),b
  3197   001E2C                     l3224:
  3198                           
  3199                           ; BSR set to: 0
  3200                           ;mcc_generated_files/i2c_client/src/i2c_master.c: 242:         I2C_MasterStart();
  3201   001E2C  ECCB  F011         	call	_I2C_MasterStart	;wreg free
  3202   001E30                     l3226:
  3203                           
  3204                           ;mcc_generated_files/i2c_client/src/i2c_master.c: 244:     return returnValue;
  3205   001E30  5012               	movf	I2C_MasterOperation@returnValue^0,w,c
  3206   001E32  0012               	return		;funcret
  3207   001E34                     __end_of_I2C_MasterOperation:
  3208                           	callstack 0
  3209                           
  3210 ;; *************** function _I2C_MasterStart *****************
  3211 ;; Defined at:
  3212 ;;		line 589 in file "mcc_generated_files/i2c_client/src/i2c_master.c"
  3213 ;; Parameters:    Size  Location     Type
  3214 ;;		None
  3215 ;; Auto vars:     Size  Location     Type
  3216 ;;		None
  3217 ;; Return value:  Size  Location     Type
  3218 ;;                  1    wreg      void 
  3219 ;; Registers used:
  3220 ;;		None
  3221 ;; Tracked objects:
  3222 ;;		On entry : 0/0
  3223 ;;		On exit  : 0/0
  3224 ;;		Unchanged: 0/0
  3225 ;; Data sizes:     COMRAM   BANK0   BANK1   BANK2   BANK3   BANK4   BANK5   BANK6   BANK7   BANK8   BANK9  BANK10  BANK1
      +1  BANK12  BANK13  BANK14  BANK15
  3226 ;;      Params:         0       0       0       0       0       0       0       0       0       0       0       0       
      +0       0       0       0       0
  3227 ;;      Locals:         0       0       0       0       0       0       0       0       0       0       0       0       
      +0       0       0       0       0
  3228 ;;      Temps:          0       0       0       0       0       0       0       0       0       0       0       0       
      +0       0       0       0       0
  3229 ;;      Totals:         0       0       0       0       0       0       0       0       0       0       0       0       
      +0       0       0       0       0
  3230 ;;Total ram usage:        0 bytes
  3231 ;; Hardware stack levels used: 1
  3232 ;; Hardware stack levels required when called: 7
  3233 ;; This function calls:
  3234 ;;		Nothing
  3235 ;; This function is called by:
  3236 ;;		_I2C_MasterOperation
  3237 ;; This function uses a non-reentrant model
  3238 ;;
  3239                           
  3240                           	psect	text35
  3241   002396                     __ptext35:
  3242                           	callstack 0
  3243   002396                     _I2C_MasterStart:
  3244                           	callstack 19
  3245   002396                     
  3246                           ;mcc_generated_files/i2c_client/src/i2c_master.c: 591:     SSPCON2bits.SEN = 1;
  3247   002396  80C5               	bsf	197,0,c	;volatile
  3248   002398  0012               	return		;funcret
  3249   00239A                     __end_of_I2C_MasterStart:
  3250                           	callstack 0
  3251                           
  3252 ;; *************** function _I2C_Close *****************
  3253 ;; Defined at:
  3254 ;;		line 211 in file "mcc_generated_files/i2c_client/src/i2c_master.c"
  3255 ;; Parameters:    Size  Location     Type
  3256 ;;		None
  3257 ;; Auto vars:     Size  Location     Type
  3258 ;;  returnValue     1   16[COMRAM] enum E358
  3259 ;; Return value:  Size  Location     Type
  3260 ;;                  1    wreg      enum E358
  3261 ;; Registers used:
  3262 ;;		wreg, status,2, cstack
  3263 ;; Tracked objects:
  3264 ;;		On entry : 0/0
  3265 ;;		On exit  : 0/0
  3266 ;;		Unchanged: 0/0
  3267 ;; Data sizes:     COMRAM   BANK0   BANK1   BANK2   BANK3   BANK4   BANK5   BANK6   BANK7   BANK8   BANK9  BANK10  BANK1
      +1  BANK12  BANK13  BANK14  BANK15
  3268 ;;      Params:         0       0       0       0       0       0       0       0       0       0       0       0       
      +0       0       0       0       0
  3269 ;;      Locals:         1       0       0       0       0       0       0       0       0       0       0       0       
      +0       0       0       0       0
  3270 ;;      Temps:          0       0       0       0       0       0       0       0       0       0       0       0       
      +0       0       0       0       0
  3271 ;;      Totals:         1       0       0       0       0       0       0       0       0       0       0       0       
      +0       0       0       0       0
  3272 ;;Total ram usage:        1 bytes
  3273 ;; Hardware stack levels used: 1
  3274 ;; Hardware stack levels required when called: 8
  3275 ;; This function calls:
  3276 ;;		_I2C_MasterClearIrq
  3277 ;;		_I2C_MasterClose
  3278 ;;		_I2C_MasterDisableIrq
  3279 ;; This function is called by:
  3280 ;;		_I2C_Read1ByteRegister
  3281 ;;		_I2C_Write1Byte
  3282 ;;		_I2C_Read2ByteRegister
  3283 ;;		_I2C_Write1ByteRegister
  3284 ;;		_I2C_Write2ByteRegister
  3285 ;;		_I2C_WriteNBytes
  3286 ;;		_I2C_ReadNBytes
  3287 ;;		_I2C_ReadDataBlock
  3288 ;; This function uses a non-reentrant model
  3289 ;;
  3290                           
  3291                           	psect	text36
  3292   001FA6                     __ptext36:
  3293                           	callstack 0
  3294   001FA6                     _I2C_Close:
  3295                           	callstack 20
  3296   001FA6                     
  3297                           ;mcc_generated_files/i2c_client/src/i2c_master.c: 213:     i2c_error_t returnValue = I2C
      +                          _BUSY;
  3298   001FA6  0E01               	movlw	1
  3299   001FA8  6E11               	movwf	I2C_Close@returnValue^0,c
  3300   001FAA                     
  3301                           ;mcc_generated_files/i2c_client/src/i2c_master.c: 214:     if(!I2C_Status.busy)
  3302   001FAA  0100               	movlb	0	; () banked
  3303   001FAC  B383               	btfsc	(_I2C_Status+35)& (0+255),1,b
  3304   001FAE  EFDB  F00F         	goto	u1591
  3305   001FB2  EFDD  F00F         	goto	u1590
  3306   001FB6                     u1591:
  3307   001FB6  EFE7  F00F         	goto	l3402
  3308   001FBA                     u1590:
  3309   001FBA                     
  3310                           ; BSR set to: 0
  3311                           ;mcc_generated_files/i2c_client/src/i2c_master.c: 215:     {;mcc_generated_files/i2c_cli
      +                          ent/src/i2c_master.c: 216:         I2C_Status.inUse = 0;
  3312   001FBA  9583               	bcf	(_I2C_Status+35)& (0+255),2,b
  3313                           
  3314                           ;mcc_generated_files/i2c_client/src/i2c_master.c: 217:         I2C_Status.address = 0xff
      +                          ;
  3315   001FBC  697C               	setf	(_I2C_Status+28)& (0+255),b
  3316   001FBE                     
  3317                           ; BSR set to: 0
  3318                           ;mcc_generated_files/i2c_client/src/i2c_master.c: 218:         I2C_MasterClearIrq();
  3319   001FBE  ECD1  F011         	call	_I2C_MasterClearIrq	;wreg free
  3320                           
  3321                           ;mcc_generated_files/i2c_client/src/i2c_master.c: 219:         I2C_MasterDisableIrq();
  3322   001FC2  ECCD  F011         	call	_I2C_MasterDisableIrq	;wreg free
  3323                           
  3324                           ;mcc_generated_files/i2c_client/src/i2c_master.c: 220:         I2C_MasterClose();
  3325   001FC6  ECCF  F011         	call	_I2C_MasterClose	;wreg free
  3326   001FCA                     
  3327                           ;mcc_generated_files/i2c_client/src/i2c_master.c: 221:         returnValue = I2C_Status.
      +                          error;
  3328   001FCA  C082  F011         	movff	_I2C_Status+34,I2C_Close@returnValue
  3329   001FCE                     l3402:
  3330                           
  3331                           ;mcc_generated_files/i2c_client/src/i2c_master.c: 223:     return returnValue;
  3332   001FCE  5011               	movf	I2C_Close@returnValue^0,w,c
  3333   001FD0  0012               	return		;funcret
  3334   001FD2                     __end_of_I2C_Close:
  3335                           	callstack 0
  3336                           
  3337 ;; *************** function _I2C_MasterDisableIrq *****************
  3338 ;; Defined at:
  3339 ;;		line 637 in file "mcc_generated_files/i2c_client/src/i2c_master.c"
  3340 ;; Parameters:    Size  Location     Type
  3341 ;;		None
  3342 ;; Auto vars:     Size  Location     Type
  3343 ;;		None
  3344 ;; Return value:  Size  Location     Type
  3345 ;;                  1    wreg      void 
  3346 ;; Registers used:
  3347 ;;		None
  3348 ;; Tracked objects:
  3349 ;;		On entry : 0/0
  3350 ;;		On exit  : 0/0
  3351 ;;		Unchanged: 0/0
  3352 ;; Data sizes:     COMRAM   BANK0   BANK1   BANK2   BANK3   BANK4   BANK5   BANK6   BANK7   BANK8   BANK9  BANK10  BANK1
      +1  BANK12  BANK13  BANK14  BANK15
  3353 ;;      Params:         0       0       0       0       0       0       0       0       0       0       0       0       
      +0       0       0       0       0
  3354 ;;      Locals:         0       0       0       0       0       0       0       0       0       0       0       0       
      +0       0       0       0       0
  3355 ;;      Temps:          0       0       0       0       0       0       0       0       0       0       0       0       
      +0       0       0       0       0
  3356 ;;      Totals:         0       0       0       0       0       0       0       0       0       0       0       0       
      +0       0       0       0       0
  3357 ;;Total ram usage:        0 bytes
  3358 ;; Hardware stack levels used: 1
  3359 ;; Hardware stack levels required when called: 7
  3360 ;; This function calls:
  3361 ;;		Nothing
  3362 ;; This function is called by:
  3363 ;;		_I2C_Close
  3364 ;;		_I2C_SetTimeOut
  3365 ;; This function uses a non-reentrant model
  3366 ;;
  3367                           
  3368                           	psect	text37
  3369   00239A                     __ptext37:
  3370                           	callstack 0
  3371   00239A                     _I2C_MasterDisableIrq:
  3372                           	callstack 20
  3373   00239A                     
  3374                           ;mcc_generated_files/i2c_client/src/i2c_master.c: 639:     PIE1bits.SSPIE = 0;
  3375   00239A  969D               	bcf	157,3,c	;volatile
  3376   00239C  0012               	return		;funcret
  3377   00239E                     __end_of_I2C_MasterDisableIrq:
  3378                           	callstack 0
  3379                           
  3380 ;; *************** function _I2C_MasterClose *****************
  3381 ;; Defined at:
  3382 ;;		line 558 in file "mcc_generated_files/i2c_client/src/i2c_master.c"
  3383 ;; Parameters:    Size  Location     Type
  3384 ;;		None
  3385 ;; Auto vars:     Size  Location     Type
  3386 ;;		None
  3387 ;; Return value:  Size  Location     Type
  3388 ;;                  1    wreg      void 
  3389 ;; Registers used:
  3390 ;;		None
  3391 ;; Tracked objects:
  3392 ;;		On entry : 0/0
  3393 ;;		On exit  : 0/0
  3394 ;;		Unchanged: 0/0
  3395 ;; Data sizes:     COMRAM   BANK0   BANK1   BANK2   BANK3   BANK4   BANK5   BANK6   BANK7   BANK8   BANK9  BANK10  BANK1
      +1  BANK12  BANK13  BANK14  BANK15
  3396 ;;      Params:         0       0       0       0       0       0       0       0       0       0       0       0       
      +0       0       0       0       0
  3397 ;;      Locals:         0       0       0       0       0       0       0       0       0       0       0       0       
      +0       0       0       0       0
  3398 ;;      Temps:          0       0       0       0       0       0       0       0       0       0       0       0       
      +0       0       0       0       0
  3399 ;;      Totals:         0       0       0       0       0       0       0       0       0       0       0       0       
      +0       0       0       0       0
  3400 ;;Total ram usage:        0 bytes
  3401 ;; Hardware stack levels used: 1
  3402 ;; Hardware stack levels required when called: 7
  3403 ;; This function calls:
  3404 ;;		Nothing
  3405 ;; This function is called by:
  3406 ;;		_I2C_Close
  3407 ;; This function uses a non-reentrant model
  3408 ;;
  3409                           
  3410                           	psect	text38
  3411   00239E                     __ptext38:
  3412                           	callstack 0
  3413   00239E                     _I2C_MasterClose:
  3414                           	callstack 20
  3415   00239E                     
  3416                           ;mcc_generated_files/i2c_client/src/i2c_master.c: 561:     SSPCON1bits.SSPEN = 0;
  3417   00239E  9AC6               	bcf	198,5,c	;volatile
  3418   0023A0  0012               	return		;funcret
  3419   0023A2                     __end_of_I2C_MasterClose:
  3420                           	callstack 0
  3421                           
  3422 ;; *************** function _I2C_MasterClearIrq *****************
  3423 ;; Defined at:
  3424 ;;		line 642 in file "mcc_generated_files/i2c_client/src/i2c_master.c"
  3425 ;; Parameters:    Size  Location     Type
  3426 ;;		None
  3427 ;; Auto vars:     Size  Location     Type
  3428 ;;		None
  3429 ;; Return value:  Size  Location     Type
  3430 ;;                  1    wreg      void 
  3431 ;; Registers used:
  3432 ;;		None
  3433 ;; Tracked objects:
  3434 ;;		On entry : 0/0
  3435 ;;		On exit  : 0/0
  3436 ;;		Unchanged: 0/0
  3437 ;; Data sizes:     COMRAM   BANK0   BANK1   BANK2   BANK3   BANK4   BANK5   BANK6   BANK7   BANK8   BANK9  BANK10  BANK1
      +1  BANK12  BANK13  BANK14  BANK15
  3438 ;;      Params:         0       0       0       0       0       0       0       0       0       0       0       0       
      +0       0       0       0       0
  3439 ;;      Locals:         0       0       0       0       0       0       0       0       0       0       0       0       
      +0       0       0       0       0
  3440 ;;      Temps:          0       0       0       0       0       0       0       0       0       0       0       0       
      +0       0       0       0       0
  3441 ;;      Totals:         0       0       0       0       0       0       0       0       0       0       0       0       
      +0       0       0       0       0
  3442 ;;Total ram usage:        0 bytes
  3443 ;; Hardware stack levels used: 1
  3444 ;; Hardware stack levels required when called: 7
  3445 ;; This function calls:
  3446 ;;		Nothing
  3447 ;; This function is called by:
  3448 ;;		_I2C_Open
  3449 ;;		_I2C_Close
  3450 ;; This function uses a non-reentrant model
  3451 ;;
  3452                           
  3453                           	psect	text39
  3454   0023A2                     __ptext39:
  3455                           	callstack 0
  3456   0023A2                     _I2C_MasterClearIrq:
  3457                           	callstack 20
  3458   0023A2                     
  3459                           ;mcc_generated_files/i2c_client/src/i2c_master.c: 644:     PIR1bits.SSPIF = 0;
  3460   0023A2  969E               	bcf	158,3,c	;volatile
  3461   0023A4  0012               	return		;funcret
  3462   0023A6                     __end_of_I2C_MasterClearIrq:
  3463                           	callstack 0
  3464                           
  3465 ;; *************** function _EUSART_Send_Time *****************
  3466 ;; Defined at:
  3467 ;;		line 115 in file "main.c"
  3468 ;; Parameters:    Size  Location     Type
  3469 ;;		None
  3470 ;; Auto vars:     Size  Location     Type
  3471 ;;		None
  3472 ;; Return value:  Size  Location     Type
  3473 ;;                  1    wreg      void 
  3474 ;; Registers used:
  3475 ;;		wreg, fsr0l, fsr0h, fsr1l, fsr1h, fsr2l, fsr2h, status,2, status,0, tblptrl, tblptrh, tblptru, cstack
  3476 ;; Tracked objects:
  3477 ;;		On entry : 0/0
  3478 ;;		On exit  : 0/0
  3479 ;;		Unchanged: 0/0
  3480 ;; Data sizes:     COMRAM   BANK0   BANK1   BANK2   BANK3   BANK4   BANK5   BANK6   BANK7   BANK8   BANK9  BANK10  BANK1
      +1  BANK12  BANK13  BANK14  BANK15
  3481 ;;      Params:         0       0       0       0       0       0       0       0       0       0       0       0       
      +0       0       0       0       0
  3482 ;;      Locals:         0       0       0       0       0       0       0       0       0       0       0       0       
      +0       0       0       0       0
  3483 ;;      Temps:          2       0       0       0       0       0       0       0       0       0       0       0       
      +0       0       0       0       0
  3484 ;;      Totals:         2       0       0       0       0       0       0       0       0       0       0       0       
      +0       0       0       0       0
  3485 ;;Total ram usage:        2 bytes
  3486 ;; Hardware stack levels used: 1
  3487 ;; Hardware stack levels required when called: 13
  3488 ;; This function calls:
  3489 ;;		_EUSART_IsTxReady
  3490 ;;		_EUSART_Send_String
  3491 ;;		_EUSART_Write
  3492 ;;		_convert_byte_to_str
  3493 ;; This function is called by:
  3494 ;;		_main
  3495 ;; This function uses a non-reentrant model
  3496 ;;
  3497                           
  3498                           	psect	text40
  3499   0014DC                     __ptext40:
  3500                           	callstack 0
  3501   0014DC                     _EUSART_Send_Time:
  3502                           	callstack 17
  3503   0014DC                     
  3504                           ;main.c: 116:     EUSART_Send_String("Time : ");
  3505   0014DC  0E6C               	movlw	low STR_2
  3506   0014DE  6E15               	movwf	EUSART_Send_String@str^0,c
  3507   0014E0  5015               	movf	EUSART_Send_String@str^0,w,c
  3508   0014E2  A4D8               	btfss	status,2,c
  3509   0014E4  0E10               	movlw	high __smallconst
  3510   0014E6  6E16               	movwf	(EUSART_Send_String@str+1)^0,c
  3511   0014E8  EC75  F00C         	call	_EUSART_Send_String	;wreg free
  3512   0014EC                     
  3513                           ;main.c: 117:     convert_byte_to_str(dummy_str, DS1307_obj._Hour);
  3514   0014EC  0E5B               	movlw	low _dummy_str
  3515   0014EE  6E3D               	movwf	convert_byte_to_str@str^0,c
  3516   0014F0  C0A4  F03E         	movff	_DS1307_obj,convert_byte_to_str@val
  3517   0014F4  ECE9  F00F         	call	_convert_byte_to_str	;wreg free
  3518   0014F8                     
  3519                           ;main.c: 118:     EUSART_Send_String(dummy_str);
  3520   0014F8  0E5B               	movlw	low _dummy_str
  3521   0014FA  6E15               	movwf	EUSART_Send_String@str^0,c
  3522   0014FC  6A16               	clrf	(EUSART_Send_String@str+1)^0,c
  3523   0014FE  EC75  F00C         	call	_EUSART_Send_String	;wreg free
  3524   001502                     l3944:
  3525   001502  EC57  F010         	call	_EUSART_IsTxReady	;wreg free
  3526   001506  0900               	iorlw	0
  3527   001508  B4D8               	btfsc	status,2,c
  3528   00150A  EF89  F00A         	goto	u1911
  3529   00150E  EF8B  F00A         	goto	u1910
  3530   001512                     u1911:
  3531   001512  EF81  F00A         	goto	l3944
  3532   001516                     u1910:
  3533   001516                     
  3534                           ;main.c: 120:     EUSART_Write(':');
  3535   001516  0E3A               	movlw	58
  3536   001518  EC95  F011         	call	_EUSART_Write
  3537   00151C                     
  3538                           ;main.c: 121:     convert_byte_to_str(dummy_str, DS1307_obj._Minute);
  3539   00151C  0E5B               	movlw	low _dummy_str
  3540   00151E  6E3D               	movwf	convert_byte_to_str@str^0,c
  3541   001520  C0A5  F03E         	movff	_DS1307_obj+1,convert_byte_to_str@val
  3542   001524  ECE9  F00F         	call	_convert_byte_to_str	;wreg free
  3543   001528                     
  3544                           ;main.c: 122:     EUSART_Send_String(dummy_str);
  3545   001528  0E5B               	movlw	low _dummy_str
  3546   00152A  6E15               	movwf	EUSART_Send_String@str^0,c
  3547   00152C  6A16               	clrf	(EUSART_Send_String@str+1)^0,c
  3548   00152E  EC75  F00C         	call	_EUSART_Send_String	;wreg free
  3549   001532                     l3952:
  3550   001532  EC57  F010         	call	_EUSART_IsTxReady	;wreg free
  3551   001536  0900               	iorlw	0
  3552   001538  B4D8               	btfsc	status,2,c
  3553   00153A  EFA1  F00A         	goto	u1921
  3554   00153E  EFA3  F00A         	goto	u1920
  3555   001542                     u1921:
  3556   001542  EF99  F00A         	goto	l3952
  3557   001546                     u1920:
  3558   001546                     
  3559                           ;main.c: 124:     EUSART_Write(':');
  3560   001546  0E3A               	movlw	58
  3561   001548  EC95  F011         	call	_EUSART_Write
  3562   00154C                     
  3563                           ;main.c: 125:     convert_byte_to_str(dummy_str, DS1307_obj._Second);
  3564   00154C  0E5B               	movlw	low _dummy_str
  3565   00154E  6E3D               	movwf	convert_byte_to_str@str^0,c
  3566   001550  C0A6  F03E         	movff	_DS1307_obj+2,convert_byte_to_str@val
  3567   001554  ECE9  F00F         	call	_convert_byte_to_str	;wreg free
  3568   001558                     
  3569                           ;main.c: 126:     EUSART_Send_String(dummy_str);
  3570   001558  0E5B               	movlw	low _dummy_str
  3571   00155A  6E15               	movwf	EUSART_Send_String@str^0,c
  3572   00155C  6A16               	clrf	(EUSART_Send_String@str+1)^0,c
  3573   00155E  EC75  F00C         	call	_EUSART_Send_String	;wreg free
  3574   001562                     l3960:
  3575   001562  EC57  F010         	call	_EUSART_IsTxReady	;wreg free
  3576   001566  0900               	iorlw	0
  3577   001568  B4D8               	btfsc	status,2,c
  3578   00156A  EFB9  F00A         	goto	u1931
  3579   00156E  EFBB  F00A         	goto	u1930
  3580   001572                     u1931:
  3581   001572  EFB1  F00A         	goto	l3960
  3582   001576                     u1930:
  3583   001576                     
  3584                           ;main.c: 128:     EUSART_Write('\r');
  3585   001576  0E0D               	movlw	13
  3586   001578  EC95  F011         	call	_EUSART_Write
  3587   00157C                     
  3588                           ;main.c: 129:     _delay((unsigned long)((250)*(8000000/4000.0)));
  3589   00157C  0E03               	movlw	3
  3590   00157E  6E40               	movwf	(??_EUSART_Send_Time+1)^0,c
  3591   001580  0E8A               	movlw	138
  3592   001582  6E3F               	movwf	??_EUSART_Send_Time^0,c
  3593   001584  0E56               	movlw	86
  3594   001586                     u2167:
  3595   001586  2EE8               	decfsz	wreg,f,c
  3596   001588  D7FE               	bra	u2167
  3597   00158A  2E3F               	decfsz	??_EUSART_Send_Time^0,f,c
  3598   00158C  D7FC               	bra	u2167
  3599   00158E  2E40               	decfsz	(??_EUSART_Send_Time+1)^0,f,c
  3600   001590  D7FA               	bra	u2167
  3601   001592  0012               	return		;funcret
  3602   001594                     __end_of_EUSART_Send_Time:
  3603                           	callstack 0
  3604                           
  3605 ;; *************** function _EUSART_Send_Temp *****************
  3606 ;; Defined at:
  3607 ;;		line 132 in file "main.c"
  3608 ;; Parameters:    Size  Location     Type
  3609 ;;		None
  3610 ;; Auto vars:     Size  Location     Type
  3611 ;;		None
  3612 ;; Return value:  Size  Location     Type
  3613 ;;                  1    wreg      void 
  3614 ;; Registers used:
  3615 ;;		wreg, fsr0l, fsr0h, fsr1l, fsr1h, fsr2l, fsr2h, status,2, status,0, tblptrl, tblptrh, tblptru, cstack
  3616 ;; Tracked objects:
  3617 ;;		On entry : 0/0
  3618 ;;		On exit  : 0/0
  3619 ;;		Unchanged: 0/0
  3620 ;; Data sizes:     COMRAM   BANK0   BANK1   BANK2   BANK3   BANK4   BANK5   BANK6   BANK7   BANK8   BANK9  BANK10  BANK1
      +1  BANK12  BANK13  BANK14  BANK15
  3621 ;;      Params:         0       0       0       0       0       0       0       0       0       0       0       0       
      +0       0       0       0       0
  3622 ;;      Locals:         0       0       0       0       0       0       0       0       0       0       0       0       
      +0       0       0       0       0
  3623 ;;      Temps:          0       0       0       0       0       0       0       0       0       0       0       0       
      +0       0       0       0       0
  3624 ;;      Totals:         0       0       0       0       0       0       0       0       0       0       0       0       
      +0       0       0       0       0
  3625 ;;Total ram usage:        0 bytes
  3626 ;; Hardware stack levels used: 1
  3627 ;; Hardware stack levels required when called: 13
  3628 ;; This function calls:
  3629 ;;		_EUSART_IsTxReady
  3630 ;;		_EUSART_Send_String
  3631 ;;		_EUSART_Write
  3632 ;;		_convert_byte_to_str
  3633 ;; This function is called by:
  3634 ;;		_main
  3635 ;; This function uses a non-reentrant model
  3636 ;;
  3637                           
  3638                           	psect	text41
  3639   001AC2                     __ptext41:
  3640                           	callstack 0
  3641   001AC2                     _EUSART_Send_Temp:
  3642                           	callstack 17
  3643   001AC2                     
  3644                           ;main.c: 133:     EUSART_Send_String("Temperature : ");
  3645   001AC2  0E51               	movlw	low STR_3
  3646   001AC4  6E15               	movwf	EUSART_Send_String@str^0,c
  3647   001AC6  5015               	movf	EUSART_Send_String@str^0,w,c
  3648   001AC8  A4D8               	btfss	status,2,c
  3649   001ACA  0E10               	movlw	high __smallconst
  3650   001ACC  6E16               	movwf	(EUSART_Send_String@str+1)^0,c
  3651   001ACE  EC75  F00C         	call	_EUSART_Send_String	;wreg free
  3652   001AD2                     
  3653                           ;main.c: 134:     convert_byte_to_str(hex_str, TC74_Temp);
  3654   001AD2  0E59               	movlw	low _hex_str
  3655   001AD4  6E3D               	movwf	convert_byte_to_str@str^0,c
  3656   001AD6  C055  F03E         	movff	_TC74_Temp,convert_byte_to_str@val
  3657   001ADA  ECE9  F00F         	call	_convert_byte_to_str	;wreg free
  3658   001ADE                     
  3659                           ;main.c: 135:     EUSART_Send_String(hex_str);
  3660   001ADE  0E59               	movlw	low _hex_str
  3661   001AE0  6E15               	movwf	EUSART_Send_String@str^0,c
  3662   001AE2  6A16               	clrf	(EUSART_Send_String@str+1)^0,c
  3663   001AE4  EC75  F00C         	call	_EUSART_Send_String	;wreg free
  3664   001AE8                     l3972:
  3665   001AE8  EC57  F010         	call	_EUSART_IsTxReady	;wreg free
  3666   001AEC  0900               	iorlw	0
  3667   001AEE  B4D8               	btfsc	status,2,c
  3668   001AF0  EF7C  F00D         	goto	u1941
  3669   001AF4  EF7E  F00D         	goto	u1940
  3670   001AF8                     u1941:
  3671   001AF8  EF74  F00D         	goto	l3972
  3672   001AFC                     u1940:
  3673   001AFC                     
  3674                           ;main.c: 137:     EUSART_Write('C');
  3675   001AFC  0E43               	movlw	67
  3676   001AFE  EC95  F011         	call	_EUSART_Write
  3677   001B02                     
  3678                           ;main.c: 138:     EUSART_Send_String(" (in hexa) ");
  3679   001B02  0E60               	movlw	low STR_4
  3680   001B04  6E15               	movwf	EUSART_Send_String@str^0,c
  3681   001B06  5015               	movf	EUSART_Send_String@str^0,w,c
  3682   001B08  A4D8               	btfss	status,2,c
  3683   001B0A  0E10               	movlw	high __smallconst
  3684   001B0C  6E16               	movwf	(EUSART_Send_String@str+1)^0,c
  3685   001B0E  EC75  F00C         	call	_EUSART_Send_String	;wreg free
  3686   001B12                     l3978:
  3687   001B12  EC57  F010         	call	_EUSART_IsTxReady	;wreg free
  3688   001B16  0900               	iorlw	0
  3689   001B18  B4D8               	btfsc	status,2,c
  3690   001B1A  EF91  F00D         	goto	u1951
  3691   001B1E  EF93  F00D         	goto	u1950
  3692   001B22                     u1951:
  3693   001B22  EF89  F00D         	goto	l3978
  3694   001B26                     u1950:
  3695   001B26                     
  3696                           ;main.c: 140:     EUSART_Write('\r');
  3697   001B26  0E0D               	movlw	13
  3698   001B28  EC95  F011         	call	_EUSART_Write
  3699   001B2C  0012               	return		;funcret
  3700   001B2E                     __end_of_EUSART_Send_Temp:
  3701                           	callstack 0
  3702                           
  3703 ;; *************** function _EUSART_Send_Date *****************
  3704 ;; Defined at:
  3705 ;;		line 98 in file "main.c"
  3706 ;; Parameters:    Size  Location     Type
  3707 ;;		None
  3708 ;; Auto vars:     Size  Location     Type
  3709 ;;		None
  3710 ;; Return value:  Size  Location     Type
  3711 ;;                  1    wreg      void 
  3712 ;; Registers used:
  3713 ;;		wreg, fsr0l, fsr0h, fsr1l, fsr1h, fsr2l, fsr2h, status,2, status,0, tblptrl, tblptrh, tblptru, cstack
  3714 ;; Tracked objects:
  3715 ;;		On entry : 0/0
  3716 ;;		On exit  : 0/0
  3717 ;;		Unchanged: 0/0
  3718 ;; Data sizes:     COMRAM   BANK0   BANK1   BANK2   BANK3   BANK4   BANK5   BANK6   BANK7   BANK8   BANK9  BANK10  BANK1
      +1  BANK12  BANK13  BANK14  BANK15
  3719 ;;      Params:         0       0       0       0       0       0       0       0       0       0       0       0       
      +0       0       0       0       0
  3720 ;;      Locals:         0       0       0       0       0       0       0       0       0       0       0       0       
      +0       0       0       0       0
  3721 ;;      Temps:          2       0       0       0       0       0       0       0       0       0       0       0       
      +0       0       0       0       0
  3722 ;;      Totals:         2       0       0       0       0       0       0       0       0       0       0       0       
      +0       0       0       0       0
  3723 ;;Total ram usage:        2 bytes
  3724 ;; Hardware stack levels used: 1
  3725 ;; Hardware stack levels required when called: 13
  3726 ;; This function calls:
  3727 ;;		_EUSART_IsTxReady
  3728 ;;		_EUSART_Send_String
  3729 ;;		_EUSART_Write
  3730 ;;		_convert_byte_to_str
  3731 ;; This function is called by:
  3732 ;;		_main
  3733 ;; This function uses a non-reentrant model
  3734 ;;
  3735                           
  3736                           	psect	text42
  3737   001594                     __ptext42:
  3738                           	callstack 0
  3739   001594                     _EUSART_Send_Date:
  3740                           	callstack 17
  3741   001594                     
  3742                           ;main.c: 99:     EUSART_Send_String("Date : ");
  3743   001594  0E74               	movlw	low STR_1
  3744   001596  6E15               	movwf	EUSART_Send_String@str^0,c
  3745   001598  5015               	movf	EUSART_Send_String@str^0,w,c
  3746   00159A  A4D8               	btfss	status,2,c
  3747   00159C  0E10               	movlw	high __smallconst
  3748   00159E  6E16               	movwf	(EUSART_Send_String@str+1)^0,c
  3749   0015A0  EC75  F00C         	call	_EUSART_Send_String	;wreg free
  3750   0015A4                     
  3751                           ;main.c: 100:     convert_byte_to_str(dummy_str, DS1307_obj._Day);
  3752   0015A4  0E5B               	movlw	low _dummy_str
  3753   0015A6  6E3D               	movwf	convert_byte_to_str@str^0,c
  3754   0015A8  C0A9  F03E         	movff	_DS1307_obj+5,convert_byte_to_str@val
  3755   0015AC  ECE9  F00F         	call	_convert_byte_to_str	;wreg free
  3756   0015B0                     
  3757                           ;main.c: 101:     EUSART_Send_String(dummy_str);
  3758   0015B0  0E5B               	movlw	low _dummy_str
  3759   0015B2  6E15               	movwf	EUSART_Send_String@str^0,c
  3760   0015B4  6A16               	clrf	(EUSART_Send_String@str+1)^0,c
  3761   0015B6  EC75  F00C         	call	_EUSART_Send_String	;wreg free
  3762   0015BA                     l3916:
  3763   0015BA  EC57  F010         	call	_EUSART_IsTxReady	;wreg free
  3764   0015BE  0900               	iorlw	0
  3765   0015C0  B4D8               	btfsc	status,2,c
  3766   0015C2  EFE5  F00A         	goto	u1881
  3767   0015C6  EFE7  F00A         	goto	u1880
  3768   0015CA                     u1881:
  3769   0015CA  EFDD  F00A         	goto	l3916
  3770   0015CE                     u1880:
  3771   0015CE                     
  3772                           ;main.c: 103:     EUSART_Write('/');
  3773   0015CE  0E2F               	movlw	47
  3774   0015D0  EC95  F011         	call	_EUSART_Write
  3775   0015D4                     
  3776                           ;main.c: 104:     convert_byte_to_str(dummy_str, DS1307_obj._Month);
  3777   0015D4  0E5B               	movlw	low _dummy_str
  3778   0015D6  6E3D               	movwf	convert_byte_to_str@str^0,c
  3779   0015D8  C0A8  F03E         	movff	_DS1307_obj+4,convert_byte_to_str@val
  3780   0015DC  ECE9  F00F         	call	_convert_byte_to_str	;wreg free
  3781   0015E0                     
  3782                           ;main.c: 105:     EUSART_Send_String(dummy_str);
  3783   0015E0  0E5B               	movlw	low _dummy_str
  3784   0015E2  6E15               	movwf	EUSART_Send_String@str^0,c
  3785   0015E4  6A16               	clrf	(EUSART_Send_String@str+1)^0,c
  3786   0015E6  EC75  F00C         	call	_EUSART_Send_String	;wreg free
  3787   0015EA                     l3924:
  3788   0015EA  EC57  F010         	call	_EUSART_IsTxReady	;wreg free
  3789   0015EE  0900               	iorlw	0
  3790   0015F0  B4D8               	btfsc	status,2,c
  3791   0015F2  EFFD  F00A         	goto	u1891
  3792   0015F6  EFFF  F00A         	goto	u1890
  3793   0015FA                     u1891:
  3794   0015FA  EFF5  F00A         	goto	l3924
  3795   0015FE                     u1890:
  3796   0015FE                     
  3797                           ;main.c: 107:     EUSART_Write('/');
  3798   0015FE  0E2F               	movlw	47
  3799   001600  EC95  F011         	call	_EUSART_Write
  3800   001604                     
  3801                           ;main.c: 108:     convert_byte_to_str(dummy_str, DS1307_obj._Year);
  3802   001604  0E5B               	movlw	low _dummy_str
  3803   001606  6E3D               	movwf	convert_byte_to_str@str^0,c
  3804   001608  C0A7  F03E         	movff	_DS1307_obj+3,convert_byte_to_str@val
  3805   00160C  ECE9  F00F         	call	_convert_byte_to_str	;wreg free
  3806   001610                     
  3807                           ;main.c: 109:     EUSART_Send_String(dummy_str);
  3808   001610  0E5B               	movlw	low _dummy_str
  3809   001612  6E15               	movwf	EUSART_Send_String@str^0,c
  3810   001614  6A16               	clrf	(EUSART_Send_String@str+1)^0,c
  3811   001616  EC75  F00C         	call	_EUSART_Send_String	;wreg free
  3812   00161A                     l3932:
  3813   00161A  EC57  F010         	call	_EUSART_IsTxReady	;wreg free
  3814   00161E  0900               	iorlw	0
  3815   001620  B4D8               	btfsc	status,2,c
  3816   001622  EF15  F00B         	goto	u1901
  3817   001626  EF17  F00B         	goto	u1900
  3818   00162A                     u1901:
  3819   00162A  EF0D  F00B         	goto	l3932
  3820   00162E                     u1900:
  3821   00162E                     
  3822                           ;main.c: 111:     EUSART_Write('\r');
  3823   00162E  0E0D               	movlw	13
  3824   001630  EC95  F011         	call	_EUSART_Write
  3825   001634                     
  3826                           ;main.c: 112:     _delay((unsigned long)((250)*(8000000/4000.0)));
  3827   001634  0E03               	movlw	3
  3828   001636  6E40               	movwf	(??_EUSART_Send_Date+1)^0,c
  3829   001638  0E8A               	movlw	138
  3830   00163A  6E3F               	movwf	??_EUSART_Send_Date^0,c
  3831   00163C  0E56               	movlw	86
  3832   00163E                     u2177:
  3833   00163E  2EE8               	decfsz	wreg,f,c
  3834   001640  D7FE               	bra	u2177
  3835   001642  2E3F               	decfsz	??_EUSART_Send_Date^0,f,c
  3836   001644  D7FC               	bra	u2177
  3837   001646  2E40               	decfsz	(??_EUSART_Send_Date+1)^0,f,c
  3838   001648  D7FA               	bra	u2177
  3839   00164A  0012               	return		;funcret
  3840   00164C                     __end_of_EUSART_Send_Date:
  3841                           	callstack 0
  3842                           
  3843 ;; *************** function _convert_byte_to_str *****************
  3844 ;; Defined at:
  3845 ;;		line 143 in file "main.c"
  3846 ;; Parameters:    Size  Location     Type
  3847 ;;  str             1   60[COMRAM] PTR unsigned char 
  3848 ;;		 -> hex_str(2), dummy_str(2), 
  3849 ;;  val             1   61[COMRAM] unsigned char 
  3850 ;; Auto vars:     Size  Location     Type
  3851 ;;		None
  3852 ;; Return value:  Size  Location     Type
  3853 ;;                  1    wreg      void 
  3854 ;; Registers used:
  3855 ;;		wreg, fsr1l, fsr1h, fsr2l, fsr2h, status,2, status,0, tblptrl, tblptrh, tblptru, cstack
  3856 ;; Tracked objects:
  3857 ;;		On entry : 0/0
  3858 ;;		On exit  : 0/0
  3859 ;;		Unchanged: 0/0
  3860 ;; Data sizes:     COMRAM   BANK0   BANK1   BANK2   BANK3   BANK4   BANK5   BANK6   BANK7   BANK8   BANK9  BANK10  BANK1
      +1  BANK12  BANK13  BANK14  BANK15
  3861 ;;      Params:         2       0       0       0       0       0       0       0       0       0       0       0       
      +0       0       0       0       0
  3862 ;;      Locals:         0       0       0       0       0       0       0       0       0       0       0       0       
      +0       0       0       0       0
  3863 ;;      Temps:          0       0       0       0       0       0       0       0       0       0       0       0       
      +0       0       0       0       0
  3864 ;;      Totals:         2       0       0       0       0       0       0       0       0       0       0       0       
      +0       0       0       0       0
  3865 ;;Total ram usage:        2 bytes
  3866 ;; Hardware stack levels used: 1
  3867 ;; Hardware stack levels required when called: 12
  3868 ;; This function calls:
  3869 ;;		_memset
  3870 ;;		_sprintf
  3871 ;; This function is called by:
  3872 ;;		_EUSART_Send_Date
  3873 ;;		_EUSART_Send_Time
  3874 ;;		_EUSART_Send_Temp
  3875 ;; This function uses a non-reentrant model
  3876 ;;
  3877                           
  3878                           	psect	text43
  3879   001FD2                     __ptext43:
  3880                           	callstack 0
  3881   001FD2                     _convert_byte_to_str:
  3882                           	callstack 17
  3883   001FD2                     
  3884                           ;main.c: 144:     memset(str, '\0', 3);
  3885   001FD2  C03D  F011         	movff	convert_byte_to_str@str,memset@dest
  3886   001FD6  0E00               	movlw	0
  3887   001FD8  6E13               	movwf	(memset@c+1)^0,c
  3888   001FDA  0E00               	movlw	0
  3889   001FDC  6E12               	movwf	memset@c^0,c
  3890   001FDE  0E00               	movlw	0
  3891   001FE0  6E15               	movwf	(memset@n+1)^0,c
  3892   001FE2  0E03               	movlw	3
  3893   001FE4  6E14               	movwf	memset@n^0,c
  3894   001FE6  ECBB  F00F         	call	_memset	;wreg free
  3895   001FEA                     
  3896                           ;main.c: 145:     sprintf(str, "%x", val);
  3897   001FEA  C03D  F02C         	movff	convert_byte_to_str@str,sprintf@s
  3898   001FEE  0E7F               	movlw	low STR_5
  3899   001FF0  6E2D               	movwf	sprintf@fmt^0,c
  3900   001FF2  C03E  F02E         	movff	convert_byte_to_str@val,?_sprintf+2
  3901   001FF6  6A2F               	clrf	(?_sprintf+3)^0,c
  3902   001FF8  EC6F  F00F         	call	_sprintf	;wreg free
  3903   001FFC  0012               	return		;funcret
  3904   001FFE                     __end_of_convert_byte_to_str:
  3905                           	callstack 0
  3906                           
  3907 ;; *************** function _sprintf *****************
  3908 ;; Defined at:
  3909 ;;		line 9 in file "C:\Program Files\Microchip\xc8\v2.45\pic\sources\c99\common\nf_sprintf.c"
  3910 ;; Parameters:    Size  Location     Type
  3911 ;;  s               1   43[COMRAM] PTR unsigned char 
  3912 ;;		 -> hex_str(2), dummy_str(2), 
  3913 ;;  fmt             1   44[COMRAM] PTR const unsigned char 
  3914 ;;		 -> STR_6(3), STR_5(3), 
  3915 ;; Auto vars:     Size  Location     Type
  3916 ;;  f              12   48[COMRAM] struct _IO_FILE
  3917 ;;  ret             2    0        int 
  3918 ;;  ap              1   47[COMRAM] PTR void [1]
  3919 ;;		 -> ?_sprintf(2), 
  3920 ;; Return value:  Size  Location     Type
  3921 ;;                  2   43[COMRAM] int 
  3922 ;; Registers used:
  3923 ;;		wreg, fsr1l, fsr1h, fsr2l, fsr2h, status,2, status,0, tblptrl, tblptrh, tblptru, cstack
  3924 ;; Tracked objects:
  3925 ;;		On entry : 0/0
  3926 ;;		On exit  : 0/0
  3927 ;;		Unchanged: 0/0
  3928 ;; Data sizes:     COMRAM   BANK0   BANK1   BANK2   BANK3   BANK4   BANK5   BANK6   BANK7   BANK8   BANK9  BANK10  BANK1
      +1  BANK12  BANK13  BANK14  BANK15
  3929 ;;      Params:         4       0       0       0       0       0       0       0       0       0       0       0       
      +0       0       0       0       0
  3930 ;;      Locals:        13       0       0       0       0       0       0       0       0       0       0       0       
      +0       0       0       0       0
  3931 ;;      Temps:          0       0       0       0       0       0       0       0       0       0       0       0       
      +0       0       0       0       0
  3932 ;;      Totals:        17       0       0       0       0       0       0       0       0       0       0       0       
      +0       0       0       0       0
  3933 ;;Total ram usage:       17 bytes
  3934 ;; Hardware stack levels used: 1
  3935 ;; Hardware stack levels required when called: 11
  3936 ;; This function calls:
  3937 ;;		_vfprintf
  3938 ;; This function is called by:
  3939 ;;		_convert_byte_to_str
  3940 ;;		_convert_decimal_to_str
  3941 ;; This function uses a non-reentrant model
  3942 ;;
  3943                           
  3944                           	psect	text44
  3945   001EDE                     __ptext44:
  3946                           	callstack 0
  3947   001EDE                     _sprintf:
  3948                           	callstack 17
  3949   001EDE  0E2E               	movlw	low (?_sprintf+2)
  3950   001EE0  6E30               	movwf	sprintf@ap^0,c
  3951   001EE2  C02C  F031         	movff	sprintf@s,sprintf@f
  3952   001EE6  0E00               	movlw	0
  3953   001EE8  6E35               	movwf	(sprintf@f+4)^0,c
  3954   001EEA  0E00               	movlw	0
  3955   001EEC  6E34               	movwf	(sprintf@f+3)^0,c
  3956   001EEE  0E00               	movlw	0
  3957   001EF0  6E3C               	movwf	(sprintf@f+11)^0,c
  3958   001EF2  0E00               	movlw	0
  3959   001EF4  6E3B               	movwf	(sprintf@f+10)^0,c
  3960   001EF6  0E31               	movlw	low sprintf@f
  3961   001EF8  6E28               	movwf	vfprintf@fp^0,c
  3962   001EFA  C02D  F029         	movff	sprintf@fmt,vfprintf@fmt
  3963   001EFE  0E30               	movlw	low sprintf@ap
  3964   001F00  6E2A               	movwf	vfprintf@ap^0,c
  3965   001F02  EC1A  F00F         	call	_vfprintf	;wreg free
  3966   001F06  502C               	movf	sprintf@s^0,w,c
  3967   001F08  2434               	addwf	(sprintf@f+3)^0,w,c
  3968   001F0A  6ED9               	movwf	fsr2l,c
  3969   001F0C  6ADA               	clrf	fsr2h,c
  3970   001F0E  6ADF               	clrf	indf2,c
  3971   001F10  0012               	return		;funcret
  3972   001F12                     __end_of_sprintf:
  3973                           	callstack 0
  3974                           
  3975 ;; *************** function _vfprintf *****************
  3976 ;; Defined at:
  3977 ;;		line 1817 in file "C:\Program Files\Microchip\xc8\v2.45\pic\sources\c99\common\doprnt.c"
  3978 ;; Parameters:    Size  Location     Type
  3979 ;;  fp              1   39[COMRAM] PTR struct _IO_FILE
  3980 ;;		 -> sprintf@f(12), 
  3981 ;;  fmt             1   40[COMRAM] PTR const unsigned char 
  3982 ;;		 -> STR_6(3), STR_5(3), 
  3983 ;;  ap              1   41[COMRAM] PTR PTR void 
  3984 ;;		 -> sprintf@ap(1), 
  3985 ;; Auto vars:     Size  Location     Type
  3986 ;;  cfmt            1   42[COMRAM] PTR unsigned char 
  3987 ;;		 -> STR_6(3), STR_5(3), 
  3988 ;; Return value:  Size  Location     Type
  3989 ;;                  2   39[COMRAM] int 
  3990 ;; Registers used:
  3991 ;;		wreg, fsr1l, fsr1h, fsr2l, fsr2h, status,2, status,0, tblptrl, tblptrh, tblptru, cstack
  3992 ;; Tracked objects:
  3993 ;;		On entry : 0/0
  3994 ;;		On exit  : 0/0
  3995 ;;		Unchanged: 0/0
  3996 ;; Data sizes:     COMRAM   BANK0   BANK1   BANK2   BANK3   BANK4   BANK5   BANK6   BANK7   BANK8   BANK9  BANK10  BANK1
      +1  BANK12  BANK13  BANK14  BANK15
  3997 ;;      Params:         3       0       0       0       0       0       0       0       0       0       0       0       
      +0       0       0       0       0
  3998 ;;      Locals:         1       0       0       0       0       0       0       0       0       0       0       0       
      +0       0       0       0       0
  3999 ;;      Temps:          0       0       0       0       0       0       0       0       0       0       0       0       
      +0       0       0       0       0
  4000 ;;      Totals:         4       0       0       0       0       0       0       0       0       0       0       0       
      +0       0       0       0       0
  4001 ;;Total ram usage:        4 bytes
  4002 ;; Hardware stack levels used: 1
  4003 ;; Hardware stack levels required when called: 10
  4004 ;; This function calls:
  4005 ;;		_vfpfcnvrt
  4006 ;; This function is called by:
  4007 ;;		_sprintf
  4008 ;; This function uses a non-reentrant model
  4009 ;;
  4010                           
  4011                           	psect	text45
  4012   001E34                     __ptext45:
  4013                           	callstack 0
  4014   001E34                     _vfprintf:
  4015                           	callstack 17
  4016   001E34                     
  4017                           ;C:\Program Files\Microchip\xc8\v2.45\pic\sources\c99\common\doprnt.c: 1817: int vfprint
      +                          f(FILE *fp, const char *fmt, va_list ap);C:\Program Files\Microchip\xc8\v2.45\pic\source
      +                          s\c99\common\doprnt.c: 1818: {;C:\Program Files\Microchip\xc8\v2.45\pic\sources\c99\comm
      +                          on\doprnt.c: 1820:     char *cfmt;;C:\Program Files\Microchip\xc8\v2.45\pic\sources\c99\
      +                          common\doprnt.c: 1822:     cfmt = (char *)fmt;
  4018   001E34  C029  F02B         	movff	vfprintf@fmt,vfprintf@cfmt
  4019                           
  4020                           ;C:\Program Files\Microchip\xc8\v2.45\pic\sources\c99\common\doprnt.c: 1826:     while (
      +                          *cfmt) {
  4021   001E38  EF26  F00F         	goto	l3526
  4022   001E3C                     l3524:
  4023                           
  4024                           ;C:\Program Files\Microchip\xc8\v2.45\pic\sources\c99\common\doprnt.c: 1830:    vfpfcnvr
      +                          t(fp, &cfmt, ap);
  4025   001E3C  C028  F01B         	movff	vfprintf@fp,vfpfcnvrt@fp
  4026   001E40  0E2B               	movlw	low vfprintf@cfmt
  4027   001E42  6E1C               	movwf	vfpfcnvrt@fmt^0,c
  4028   001E44  C02A  F01D         	movff	vfprintf@ap,vfpfcnvrt@ap
  4029   001E48  EC42  F008         	call	_vfpfcnvrt	;wreg free
  4030   001E4C                     l3526:
  4031                           
  4032                           ;C:\Program Files\Microchip\xc8\v2.45\pic\sources\c99\common\doprnt.c: 1826:     while (
      +                          *cfmt) {
  4033   001E4C  C02B  FFF6         	movff	vfprintf@cfmt,tblptrl
  4034   001E50                     	if	1	;There is more than 1 active tblptr byte
  4035   001E50  0E10               	movlw	high __smallconst
  4036   001E52  6EF7               	movwf	tblptrh,c
  4037   001E54                     	endif
  4038   001E54                     	if	1	;Program memory is < 0x10000, tblptru is always zero
  4039   001E54  6AF8               	clrf	tblptru,c
  4040   001E56                     	endif
  4041   001E56                     	if	0	;tblptru may be non-zero
  4042   001E56                     	endif
  4043   001E56  0008               	tblrd		*
  4044   001E58  50F5               	movf	tablat,w,c
  4045   001E5A  0900               	iorlw	0
  4046   001E5C  A4D8               	btfss	status,2,c
  4047   001E5E  EF33  F00F         	goto	u1621
  4048   001E62  EF35  F00F         	goto	u1620
  4049   001E66                     u1621:
  4050   001E66  EF1E  F00F         	goto	l3524
  4051   001E6A                     u1620:
  4052   001E6A                     
  4053                           ;C:\Program Files\Microchip\xc8\v2.45\pic\sources\c99\common\doprnt.c: 1835:  return 0;
  4054   001E6A  0E00               	movlw	0
  4055   001E6C  6E29               	movwf	(?_vfprintf+1)^0,c
  4056   001E6E  0E00               	movlw	0
  4057   001E70  6E28               	movwf	?_vfprintf^0,c
  4058   001E72  0012               	return		;funcret
  4059   001E74                     __end_of_vfprintf:
  4060                           	callstack 0
  4061                           
  4062 ;; *************** function _vfpfcnvrt *****************
  4063 ;; Defined at:
  4064 ;;		line 1177 in file "C:\Program Files\Microchip\xc8\v2.45\pic\sources\c99\common\doprnt.c"
  4065 ;; Parameters:    Size  Location     Type
  4066 ;;  fp              1   26[COMRAM] PTR struct _IO_FILE
  4067 ;;		 -> sprintf@f(12), 
  4068 ;;  fmt             1   27[COMRAM] PTR PTR unsigned char 
  4069 ;;		 -> vfprintf@cfmt(1), 
  4070 ;;  ap              1   28[COMRAM] PTR PTR void 
  4071 ;;		 -> sprintf@ap(1), 
  4072 ;; Auto vars:     Size  Location     Type
  4073 ;;  convarg         4   34[COMRAM] struct .
  4074 ;;  c               1   38[COMRAM] unsigned char 
  4075 ;;  cp              1   33[COMRAM] PTR unsigned char 
  4076 ;;		 -> STR_6(3), STR_5(3), 
  4077 ;;  x               1   32[COMRAM] unsigned char 
  4078 ;;  done            1   31[COMRAM] _Bool 
  4079 ;; Return value:  Size  Location     Type
  4080 ;;                  1    wreg      void 
  4081 ;; Registers used:
  4082 ;;		wreg, fsr1l, fsr1h, fsr2l, fsr2h, status,2, status,0, tblptrl, tblptrh, tblptru, cstack
  4083 ;; Tracked objects:
  4084 ;;		On entry : 0/0
  4085 ;;		On exit  : 0/0
  4086 ;;		Unchanged: 0/0
  4087 ;; Data sizes:     COMRAM   BANK0   BANK1   BANK2   BANK3   BANK4   BANK5   BANK6   BANK7   BANK8   BANK9  BANK10  BANK1
      +1  BANK12  BANK13  BANK14  BANK15
  4088 ;;      Params:         3       0       0       0       0       0       0       0       0       0       0       0       
      +0       0       0       0       0
  4089 ;;      Locals:         8       0       0       0       0       0       0       0       0       0       0       0       
      +0       0       0       0       0
  4090 ;;      Temps:          2       0       0       0       0       0       0       0       0       0       0       0       
      +0       0       0       0       0
  4091 ;;      Totals:        13       0       0       0       0       0       0       0       0       0       0       0       
      +0       0       0       0       0
  4092 ;;Total ram usage:       13 bytes
  4093 ;; Hardware stack levels used: 1
  4094 ;; Hardware stack levels required when called: 9
  4095 ;; This function calls:
  4096 ;;		___awdiv
  4097 ;;		___awmod
  4098 ;;		_abs
  4099 ;;		_fputc
  4100 ;; This function is called by:
  4101 ;;		_vfprintf
  4102 ;; This function uses a non-reentrant model
  4103 ;;
  4104                           
  4105                           	psect	text46
  4106   001084                     __ptext46:
  4107                           	callstack 0
  4108   001084                     _vfpfcnvrt:
  4109                           	callstack 17
  4110   001084                     
  4111                           ;C:\Program Files\Microchip\xc8\v2.45\pic\sources\c99\common\doprnt.c: 1177: vfpfcnvrt(F
      +                          ILE *fp, char *fmt[], va_list ap);C:\Program Files\Microchip\xc8\v2.45\pic\sources\c99\c
      +                          ommon\doprnt.c: 1178: {;C:\Program Files\Microchip\xc8\v2.45\pic\sources\c99\common\dopr
      +                          nt.c: 1179:     char c, *cp;;C:\Program Files\Microchip\xc8\v2.45\pic\sources\c99\common
      +                          \doprnt.c: 1180:     _Bool done;;C:\Program Files\Microchip\xc8\v2.45\pic\sources\c99\co
      +                          mmon\doprnt.c: 1188:  } convarg;;C:\Program Files\Microchip\xc8\v2.45\pic\sources\c99\co
      +                          mmon\doprnt.c: 1194:  char x;
  4112   001084  501C               	movf	vfpfcnvrt@fmt^0,w,c
  4113   001086  6ED9               	movwf	fsr2l,c
  4114   001088  6ADA               	clrf	fsr2h,c
  4115   00108A  CFDF FFF6          	movff	indf2,tblptrl
  4116   00108E                     	if	1	;There is more than 1 active tblptr byte
  4117   00108E  0E10               	movlw	high __smallconst
  4118   001090  6EF7               	movwf	tblptrh,c
  4119   001092                     	endif
  4120   001092                     	if	1	;Program memory is < 0x10000, tblptru is always zero
  4121   001092  6AF8               	clrf	tblptru,c
  4122   001094                     	endif
  4123   001094                     	if	0	;tblptru may be non-zero
  4124   001094                     	endif
  4125   001094  0008               	tblrd		*
  4126   001096  50F5               	movf	tablat,w,c
  4127   001098  0A25               	xorlw	37
  4128   00109A  A4D8               	btfss	status,2,c
  4129   00109C  EF52  F008         	goto	u1421
  4130   0010A0  EF54  F008         	goto	u1420
  4131   0010A4                     u1421:
  4132   0010A4  EF97  F009         	goto	l3320
  4133   0010A8                     u1420:
  4134   0010A8                     
  4135                           ;C:\Program Files\Microchip\xc8\v2.45\pic\sources\c99\common\doprnt.c: 1202:         ++*
      +                          fmt;
  4136   0010A8  501C               	movf	vfpfcnvrt@fmt^0,w,c
  4137   0010AA  6ED9               	movwf	fsr2l,c
  4138   0010AC  6ADA               	clrf	fsr2h,c
  4139   0010AE  2ADF               	incf	indf2,f,c
  4140   0010B0                     
  4141                           ;C:\Program Files\Microchip\xc8\v2.45\pic\sources\c99\common\doprnt.c: 1204:         fla
      +                          gs = width = 0;
  4142   0010B0  0E00               	movlw	0
  4143   0010B2  6E42               	movwf	(_width+1)^0,c
  4144   0010B4  0E00               	movlw	0
  4145   0010B6  6E41               	movwf	_width^0,c
  4146   0010B8  C041  F053         	movff	_width,_flags
  4147   0010BC                     
  4148                           ;C:\Program Files\Microchip\xc8\v2.45\pic\sources\c99\common\doprnt.c: 1205:         pre
      +                          c = -1;
  4149   0010BC  6843               	setf	_prec^0,c
  4150   0010BE  6844               	setf	(_prec+1)^0,c
  4151   0010C0                     
  4152                           ;C:\Program Files\Microchip\xc8\v2.45\pic\sources\c99\common\doprnt.c: 1291:   cp = *fmt
      +                          ;
  4153   0010C0  501C               	movf	vfpfcnvrt@fmt^0,w,c
  4154   0010C2  6ED9               	movwf	fsr2l,c
  4155   0010C4  6ADA               	clrf	fsr2h,c
  4156   0010C6  50DF               	movf	indf2,w,c
  4157   0010C8  6E22               	movwf	vfpfcnvrt@cp^0,c
  4158   0010CA                     
  4159                           ;C:\Program Files\Microchip\xc8\v2.45\pic\sources\c99\common\doprnt.c: 1361:   if (*cp =
      +                          = 'd' || *cp == 'i') {
  4160   0010CA  C022  FFF6         	movff	vfpfcnvrt@cp,tblptrl
  4161   0010CE                     	if	1	;There is more than 1 active tblptr byte
  4162   0010CE  0E10               	movlw	high __smallconst
  4163   0010D0  6EF7               	movwf	tblptrh,c
  4164   0010D2                     	endif
  4165   0010D2                     	if	1	;Program memory is < 0x10000, tblptru is always zero
  4166   0010D2  6AF8               	clrf	tblptru,c
  4167   0010D4                     	endif
  4168   0010D4                     	if	0	;tblptru may be non-zero
  4169   0010D4                     	endif
  4170   0010D4  0008               	tblrd		*
  4171   0010D6  50F5               	movf	tablat,w,c
  4172   0010D8  0A64               	xorlw	100
  4173   0010DA  B4D8               	btfsc	status,2,c
  4174   0010DC  EF72  F008         	goto	u1431
  4175   0010E0  EF74  F008         	goto	u1430
  4176   0010E4                     u1431:
  4177   0010E4  EF83  F008         	goto	l3256
  4178   0010E8                     u1430:
  4179   0010E8  C022  FFF6         	movff	vfpfcnvrt@cp,tblptrl
  4180   0010EC                     	if	1	;There is more than 1 active tblptr byte
  4181   0010EC  0E10               	movlw	high __smallconst
  4182   0010EE  6EF7               	movwf	tblptrh,c
  4183   0010F0                     	endif
  4184   0010F0                     	if	1	;Program memory is < 0x10000, tblptru is always zero
  4185   0010F0  6AF8               	clrf	tblptru,c
  4186   0010F2                     	endif
  4187   0010F2                     	if	0	;tblptru may be non-zero
  4188   0010F2                     	endif
  4189   0010F2  0008               	tblrd		*
  4190   0010F4  50F5               	movf	tablat,w,c
  4191   0010F6  0A69               	xorlw	105
  4192   0010F8  A4D8               	btfss	status,2,c
  4193   0010FA  EF81  F008         	goto	u1441
  4194   0010FE  EF83  F008         	goto	u1440
  4195   001102                     u1441:
  4196   001102  EF09  F009         	goto	l3282
  4197   001106                     u1440:
  4198   001106                     l3256:
  4199                           
  4200                           ;C:\Program Files\Microchip\xc8\v2.45\pic\sources\c99\common\doprnt.c: 1404:    convarg.
      +                          sint = (vfpf_sint_t)(int)(*(int *)__va_arg(*(int **)ap, (int)0));
  4201   001106  501D               	movf	vfpfcnvrt@ap^0,w,c
  4202   001108  6ED9               	movwf	fsr2l,c
  4203   00110A  6ADA               	clrf	fsr2h,c
  4204   00110C  0E02               	movlw	2
  4205   00110E  26DF               	addwf	indf2,f,c
  4206   001110  5CDF               	subwf	indf2,w,c
  4207   001112  6ED9               	movwf	fsr2l,c
  4208   001114  6ADA               	clrf	fsr2h,c
  4209   001116  CFDE F023          	movff	postinc2,vfpfcnvrt@convarg
  4210   00111A  CFDE F024          	movff	postinc2,vfpfcnvrt@convarg+1
  4211   00111E                     
  4212                           ;C:\Program Files\Microchip\xc8\v2.45\pic\sources\c99\common\doprnt.c: 1406:    *fmt = c
      +                          p+1;
  4213   00111E  501C               	movf	vfpfcnvrt@fmt^0,w,c
  4214   001120  6ED9               	movwf	fsr2l,c
  4215   001122  6ADA               	clrf	fsr2h,c
  4216   001124  2822               	incf	vfpfcnvrt@cp^0,w,c
  4217   001126  6EDF               	movwf	indf2,c
  4218   001128                     
  4219                           ;C:\Program Files\Microchip\xc8\v2.45\pic\sources\c99\common\doprnt.c: 1408:    c = size
      +                          of(dbuf);
  4220   001128  0E20               	movlw	32
  4221   00112A  6E27               	movwf	vfpfcnvrt@c^0,c
  4222                           
  4223                           ;C:\Program Files\Microchip\xc8\v2.45\pic\sources\c99\common\doprnt.c: 1409:    done = c
      +                          onvarg.sint < 0;
  4224   00112C  BE24               	btfsc	(vfpfcnvrt@convarg+1)^0,7,c
  4225   00112E  EF9B  F008         	goto	u1451
  4226   001132  EF9E  F008         	goto	u1450
  4227   001136                     u1451:
  4228   001136  0E01               	movlw	1
  4229   001138  EF9F  F008         	goto	u1460
  4230   00113C                     u1450:
  4231   00113C  0E00               	movlw	0
  4232   00113E                     u1460:
  4233   00113E  6E20               	movwf	vfpfcnvrt@done^0,c
  4234   001140                     l3262:
  4235                           
  4236                           ;C:\Program Files\Microchip\xc8\v2.45\pic\sources\c99\common\doprnt.c: 1411:     dbuf[--
      +                          c] = abs(convarg.sint % 10) + '0';
  4237   001140  0627               	decf	vfpfcnvrt@c^0,f,c
  4238   001142  5027               	movf	vfpfcnvrt@c^0,w,c
  4239   001144  0F84               	addlw	low _dbuf
  4240   001146  6ED9               	movwf	fsr2l,c
  4241   001148  6ADA               	clrf	fsr2h,c
  4242   00114A  C023  F011         	movff	vfpfcnvrt@convarg,___awmod@dividend
  4243   00114E  C024  F012         	movff	vfpfcnvrt@convarg+1,___awmod@dividend+1
  4244   001152  0E00               	movlw	0
  4245   001154  6E14               	movwf	(___awmod@divisor+1)^0,c
  4246   001156  0E0A               	movlw	10
  4247   001158  6E13               	movwf	___awmod@divisor^0,c
  4248   00115A  EC26  F00B         	call	___awmod	;wreg free
  4249   00115E  C011  F017         	movff	?___awmod,abs@a
  4250   001162  C012  F018         	movff	?___awmod+1,abs@a+1
  4251   001166  EC89  F00F         	call	_abs	;wreg free
  4252   00116A  5017               	movf	?_abs^0,w,c
  4253   00116C  0F30               	addlw	48
  4254   00116E  6EDF               	movwf	indf2,c
  4255   001170                     
  4256                           ;C:\Program Files\Microchip\xc8\v2.45\pic\sources\c99\common\doprnt.c: 1412:     convarg
      +                          .sint /= 10;
  4257   001170  C023  F011         	movff	vfpfcnvrt@convarg,___awdiv@dividend
  4258   001174  C024  F012         	movff	vfpfcnvrt@convarg+1,___awdiv@dividend+1
  4259   001178  0E00               	movlw	0
  4260   00117A  6E14               	movwf	(___awdiv@divisor+1)^0,c
  4261   00117C  0E0A               	movlw	10
  4262   00117E  6E13               	movwf	___awdiv@divisor^0,c
  4263   001180  ECAA  F009         	call	___awdiv	;wreg free
  4264   001184  C011  F023         	movff	?___awdiv,vfpfcnvrt@convarg
  4265   001188  C012  F024         	movff	?___awdiv+1,vfpfcnvrt@convarg+1
  4266   00118C                     
  4267                           ;C:\Program Files\Microchip\xc8\v2.45\pic\sources\c99\common\doprnt.c: 1416:    } while 
      +                          (convarg.sint != 0 && c != 0);
  4268   00118C  5023               	movf	vfpfcnvrt@convarg^0,w,c
  4269   00118E  1024               	iorwf	(vfpfcnvrt@convarg+1)^0,w,c
  4270   001190  B4D8               	btfsc	status,2,c
  4271   001192  EFCD  F008         	goto	u1471
  4272   001196  EFCF  F008         	goto	u1470
  4273   00119A                     u1471:
  4274   00119A  EFD7  F008         	goto	l3270
  4275   00119E                     u1470:
  4276   00119E  5027               	movf	vfpfcnvrt@c^0,w,c
  4277   0011A0  A4D8               	btfss	status,2,c
  4278   0011A2  EFD5  F008         	goto	u1481
  4279   0011A6  EFD7  F008         	goto	u1480
  4280   0011AA                     u1481:
  4281   0011AA  EFA0  F008         	goto	l3262
  4282   0011AE                     u1480:
  4283   0011AE                     l3270:
  4284                           
  4285                           ;C:\Program Files\Microchip\xc8\v2.45\pic\sources\c99\common\doprnt.c: 1417:    if (c !=
      +                           0 && done) {
  4286   0011AE  5027               	movf	vfpfcnvrt@c^0,w,c
  4287   0011B0  B4D8               	btfsc	status,2,c
  4288   0011B2  EFDD  F008         	goto	u1491
  4289   0011B6  EFDF  F008         	goto	u1490
  4290   0011BA                     u1491:
  4291   0011BA  EFFE  F008         	goto	l3280
  4292   0011BE                     u1490:
  4293   0011BE  5020               	movf	vfpfcnvrt@done^0,w,c
  4294   0011C0  B4D8               	btfsc	status,2,c
  4295   0011C2  EFE5  F008         	goto	u1501
  4296   0011C6  EFE7  F008         	goto	u1500
  4297   0011CA                     u1501:
  4298   0011CA  EFFE  F008         	goto	l3280
  4299   0011CE                     u1500:
  4300   0011CE                     
  4301                           ;C:\Program Files\Microchip\xc8\v2.45\pic\sources\c99\common\doprnt.c: 1418:     dbuf[--
      +                          c] = '-';
  4302   0011CE  0627               	decf	vfpfcnvrt@c^0,f,c
  4303   0011D0  5027               	movf	vfpfcnvrt@c^0,w,c
  4304   0011D2  0F84               	addlw	low _dbuf
  4305   0011D4  6ED9               	movwf	fsr2l,c
  4306   0011D6  6ADA               	clrf	fsr2h,c
  4307   0011D8  0E2D               	movlw	45
  4308   0011DA  6EDF               	movwf	indf2,c
  4309   0011DC  EFFE  F008         	goto	l3280
  4310   0011E0                     l3276:
  4311                           
  4312                           ;C:\Program Files\Microchip\xc8\v2.45\pic\sources\c99\common\doprnt.c: 1424:     fputc(d
      +                          buf[c++], fp);
  4313   0011E0  5027               	movf	vfpfcnvrt@c^0,w,c
  4314   0011E2  0F84               	addlw	low _dbuf
  4315   0011E4  6ED9               	movwf	fsr2l,c
  4316   0011E6  6ADA               	clrf	fsr2h,c
  4317   0011E8  50DF               	movf	indf2,w,c
  4318   0011EA  6E1E               	movwf	??_vfpfcnvrt^0,c
  4319   0011EC  501E               	movf	??_vfpfcnvrt^0,w,c
  4320   0011EE  6E11               	movwf	fputc@c^0,c
  4321   0011F0  6A12               	clrf	(fputc@c+1)^0,c
  4322   0011F2  C01B  F013         	movff	vfpfcnvrt@fp,fputc@fp
  4323   0011F6  EC7E  F00B         	call	_fputc	;wreg free
  4324   0011FA  2A27               	incf	vfpfcnvrt@c^0,f,c
  4325   0011FC                     l3280:
  4326                           
  4327                           ;C:\Program Files\Microchip\xc8\v2.45\pic\sources\c99\common\doprnt.c: 1423:    while (c
      +                           != sizeof(dbuf)) {
  4328   0011FC  0E20               	movlw	32
  4329   0011FE  1827               	xorwf	vfpfcnvrt@c^0,w,c
  4330   001200  A4D8               	btfss	status,2,c
  4331   001202  EF05  F009         	goto	u1511
  4332   001206  EF07  F009         	goto	u1510
  4333   00120A                     u1511:
  4334   00120A  EFF0  F008         	goto	l3276
  4335   00120E                     u1510:
  4336   00120E  EFA9  F009         	goto	l1727
  4337   001212                     l3282:
  4338   001212  C022  FFF6         	movff	vfpfcnvrt@cp,tblptrl
  4339   001216                     	if	1	;There is more than 1 active tblptr byte
  4340   001216  0E10               	movlw	high __smallconst
  4341   001218  6EF7               	movwf	tblptrh,c
  4342   00121A                     	endif
  4343   00121A                     	if	1	;Program memory is < 0x10000, tblptru is always zero
  4344   00121A  6AF8               	clrf	tblptru,c
  4345   00121C                     	endif
  4346   00121C                     	if	0	;tblptru may be non-zero
  4347   00121C                     	endif
  4348   00121C  0008               	tblrd		*
  4349   00121E  50F5               	movf	tablat,w,c
  4350   001220  0A78               	xorlw	120
  4351   001222  A4D8               	btfss	status,2,c
  4352   001224  EF16  F009         	goto	u1521
  4353   001228  EF18  F009         	goto	u1520
  4354   00122C                     u1521:
  4355   00122C  EF91  F009         	goto	l3316
  4356   001230                     u1520:
  4357   001230                     
  4358                           ;C:\Program Files\Microchip\xc8\v2.45\pic\sources\c99\common\doprnt.c: 1452:     ) {;C:\
      +                          Program Files\Microchip\xc8\v2.45\pic\sources\c99\common\doprnt.c: 1495:    convarg.uint
      +                           = (vfpf_uint_t)(unsigned int)(*(unsigned int *)__va_arg(*(unsigned int **)ap, (unsigned
      +                           int)0));
  4359   001230  501D               	movf	vfpfcnvrt@ap^0,w,c
  4360   001232  6ED9               	movwf	fsr2l,c
  4361   001234  6ADA               	clrf	fsr2h,c
  4362   001236  0E02               	movlw	2
  4363   001238  26DF               	addwf	indf2,f,c
  4364   00123A  5CDF               	subwf	indf2,w,c
  4365   00123C  6ED9               	movwf	fsr2l,c
  4366   00123E  6ADA               	clrf	fsr2h,c
  4367   001240  CFDE F023          	movff	postinc2,vfpfcnvrt@convarg
  4368   001244  CFDE F024          	movff	postinc2,vfpfcnvrt@convarg+1
  4369   001248                     
  4370                           ;C:\Program Files\Microchip\xc8\v2.45\pic\sources\c99\common\doprnt.c: 1497:    *fmt = c
      +                          p+1;
  4371   001248  501C               	movf	vfpfcnvrt@fmt^0,w,c
  4372   00124A  6ED9               	movwf	fsr2l,c
  4373   00124C  6ADA               	clrf	fsr2h,c
  4374   00124E  2822               	incf	vfpfcnvrt@cp^0,w,c
  4375   001250  6EDF               	movwf	indf2,c
  4376                           
  4377                           ;C:\Program Files\Microchip\xc8\v2.45\pic\sources\c99\common\doprnt.c: 1498:    switch (
      +                          *cp) {
  4378   001252  EF7A  F009         	goto	l3314
  4379   001256                     l3288:
  4380                           
  4381                           ;C:\Program Files\Microchip\xc8\v2.45\pic\sources\c99\common\doprnt.c: 1553:      c = si
      +                          zeof(dbuf);
  4382   001256  0E20               	movlw	32
  4383   001258  6E27               	movwf	vfpfcnvrt@c^0,c
  4384   00125A                     l3290:
  4385                           
  4386                           ;C:\Program Files\Microchip\xc8\v2.45\pic\sources\c99\common\doprnt.c: 1558:       x = (
      +                          convarg.uint & 0xf);
  4387   00125A  5023               	movf	vfpfcnvrt@convarg^0,w,c
  4388   00125C  0B0F               	andlw	15
  4389   00125E  6E21               	movwf	vfpfcnvrt@x^0,c
  4390   001260                     
  4391                           ;C:\Program Files\Microchip\xc8\v2.45\pic\sources\c99\common\doprnt.c: 1559:       if (x
      +                           < 10) {
  4392   001260  0E0A               	movlw	10
  4393   001262  6021               	cpfslt	vfpfcnvrt@x^0,c
  4394   001264  EF36  F009         	goto	u1531
  4395   001268  EF38  F009         	goto	u1530
  4396   00126C                     u1531:
  4397   00126C  EF3C  F009         	goto	l3296
  4398   001270                     u1530:
  4399   001270                     
  4400                           ;C:\Program Files\Microchip\xc8\v2.45\pic\sources\c99\common\doprnt.c: 1560:        x +=
      +                           '0';
  4401   001270  0E30               	movlw	48
  4402   001272  2621               	addwf	vfpfcnvrt@x^0,f,c
  4403                           
  4404                           ;C:\Program Files\Microchip\xc8\v2.45\pic\sources\c99\common\doprnt.c: 1561:       }
  4405   001274  EF3E  F009         	goto	l3298
  4406   001278                     l3296:
  4407                           
  4408                           ;C:\Program Files\Microchip\xc8\v2.45\pic\sources\c99\common\doprnt.c: 1566:        x +=
      +                           'a' - 10;
  4409   001278  0E57               	movlw	87
  4410   00127A  2621               	addwf	vfpfcnvrt@x^0,f,c
  4411   00127C                     l3298:
  4412                           
  4413                           ;C:\Program Files\Microchip\xc8\v2.45\pic\sources\c99\common\doprnt.c: 1571:       dbuf[
      +                          --c] = x;
  4414   00127C  0627               	decf	vfpfcnvrt@c^0,f,c
  4415   00127E  5027               	movf	vfpfcnvrt@c^0,w,c
  4416   001280  0F84               	addlw	low _dbuf
  4417   001282  6ED9               	movwf	fsr2l,c
  4418   001284  6ADA               	clrf	fsr2h,c
  4419   001286  C021  FFDF         	movff	vfpfcnvrt@x,indf2
  4420   00128A                     
  4421                           ;C:\Program Files\Microchip\xc8\v2.45\pic\sources\c99\common\doprnt.c: 1572:       conva
      +                          rg.uint >>= 4;
  4422   00128A  3A23               	swapf	vfpfcnvrt@convarg^0,f,c
  4423   00128C  3A24               	swapf	(vfpfcnvrt@convarg+1)^0,f,c
  4424   00128E  0E0F               	movlw	15
  4425   001290  1623               	andwf	vfpfcnvrt@convarg^0,f,c
  4426   001292  5024               	movf	(vfpfcnvrt@convarg+1)^0,w,c
  4427   001294  0BF0               	andlw	240
  4428   001296  1223               	iorwf	vfpfcnvrt@convarg^0,f,c
  4429   001298  0E0F               	movlw	15
  4430   00129A  1624               	andwf	(vfpfcnvrt@convarg+1)^0,f,c
  4431   00129C                     
  4432                           ;C:\Program Files\Microchip\xc8\v2.45\pic\sources\c99\common\doprnt.c: 1576:      } whil
      +                          e (convarg.uint != 0 && c != 0);
  4433   00129C  5023               	movf	vfpfcnvrt@convarg^0,w,c
  4434   00129E  1024               	iorwf	(vfpfcnvrt@convarg+1)^0,w,c
  4435   0012A0  B4D8               	btfsc	status,2,c
  4436   0012A2  EF55  F009         	goto	u1541
  4437   0012A6  EF57  F009         	goto	u1540
  4438   0012AA                     u1541:
  4439   0012AA  EF6F  F009         	goto	l3310
  4440   0012AE                     u1540:
  4441   0012AE  5027               	movf	vfpfcnvrt@c^0,w,c
  4442   0012B0  A4D8               	btfss	status,2,c
  4443   0012B2  EF5D  F009         	goto	u1551
  4444   0012B6  EF5F  F009         	goto	u1550
  4445   0012BA                     u1551:
  4446   0012BA  EF2D  F009         	goto	l3290
  4447   0012BE                     u1550:
  4448   0012BE  EF6F  F009         	goto	l3310
  4449   0012C2                     l3306:
  4450                           
  4451                           ;C:\Program Files\Microchip\xc8\v2.45\pic\sources\c99\common\doprnt.c: 1578:       fputc
      +                          (dbuf[c++], fp);
  4452   0012C2  5027               	movf	vfpfcnvrt@c^0,w,c
  4453   0012C4  0F84               	addlw	low _dbuf
  4454   0012C6  6ED9               	movwf	fsr2l,c
  4455   0012C8  6ADA               	clrf	fsr2h,c
  4456   0012CA  50DF               	movf	indf2,w,c
  4457   0012CC  6E1E               	movwf	??_vfpfcnvrt^0,c
  4458   0012CE  501E               	movf	??_vfpfcnvrt^0,w,c
  4459   0012D0  6E11               	movwf	fputc@c^0,c
  4460   0012D2  6A12               	clrf	(fputc@c+1)^0,c
  4461   0012D4  C01B  F013         	movff	vfpfcnvrt@fp,fputc@fp
  4462   0012D8  EC7E  F00B         	call	_fputc	;wreg free
  4463   0012DC  2A27               	incf	vfpfcnvrt@c^0,f,c
  4464   0012DE                     l3310:
  4465                           
  4466                           ;C:\Program Files\Microchip\xc8\v2.45\pic\sources\c99\common\doprnt.c: 1577:      while 
      +                          (c != sizeof(dbuf)) {
  4467   0012DE  0E20               	movlw	32
  4468   0012E0  1827               	xorwf	vfpfcnvrt@c^0,w,c
  4469   0012E2  A4D8               	btfss	status,2,c
  4470   0012E4  EF76  F009         	goto	u1561
  4471   0012E8  EF78  F009         	goto	u1560
  4472   0012EC                     u1561:
  4473   0012EC  EF61  F009         	goto	l3306
  4474   0012F0                     u1560:
  4475   0012F0  EFA9  F009         	goto	l1727
  4476   0012F4                     l3314:
  4477   0012F4  C022  FFF6         	movff	vfpfcnvrt@cp,tblptrl
  4478   0012F8                     	if	1	;There is more than 1 active tblptr byte
  4479   0012F8  0E10               	movlw	high __smallconst
  4480   0012FA  6EF7               	movwf	tblptrh,c
  4481   0012FC                     	endif
  4482   0012FC                     	if	1	;Program memory is < 0x10000, tblptru is always zero
  4483   0012FC  6AF8               	clrf	tblptru,c
  4484   0012FE                     	endif
  4485   0012FE                     	if	0	;tblptru may be non-zero
  4486   0012FE                     	endif
  4487   0012FE  0008               	tblrd		*
  4488   001300  50F5               	movf	tablat,w,c
  4489   001302  6E1E               	movwf	??_vfpfcnvrt^0,c
  4490   001304  6A1F               	clrf	(??_vfpfcnvrt+1)^0,c
  4491                           
  4492                           ; Switch on 2 bytes has been partitioned into a top level switch of size 1, and 1 sub-sw
      +                          itches
  4493                           ; Switch size 1, requested type "simple"
  4494                           ; Number of cases is 1, Range of values is 0 to 0
  4495                           ; switch strategies available:
  4496                           ; Name         Instructions Cycles
  4497                           ; simple_byte            4     3 (average)
  4498                           ;	Chosen strategy is simple_byte
  4499   001306  501F               	movf	(??_vfpfcnvrt+1)^0,w,c
  4500   001308  0A00               	xorlw	0	; case 0
  4501   00130A  B4D8               	btfsc	status,2,c
  4502   00130C  EF8A  F009         	goto	l4244
  4503   001310  EF91  F009         	goto	l3316
  4504   001314                     l4244:
  4505                           
  4506                           ; Switch size 1, requested type "simple"
  4507                           ; Number of cases is 1, Range of values is 120 to 120
  4508                           ; switch strategies available:
  4509                           ; Name         Instructions Cycles
  4510                           ; simple_byte            4     3 (average)
  4511                           ;	Chosen strategy is simple_byte
  4512   001314  501E               	movf	??_vfpfcnvrt^0,w,c
  4513   001316  0A78               	xorlw	120	; case 120
  4514   001318  B4D8               	btfsc	status,2,c
  4515   00131A  EF2B  F009         	goto	l3288
  4516   00131E  EF91  F009         	goto	l3316
  4517   001322                     l3316:
  4518                           
  4519                           ;C:\Program Files\Microchip\xc8\v2.45\pic\sources\c99\common\doprnt.c: 1806:         ++*
      +                          fmt;
  4520   001322  501C               	movf	vfpfcnvrt@fmt^0,w,c
  4521   001324  6ED9               	movwf	fsr2l,c
  4522   001326  6ADA               	clrf	fsr2h,c
  4523   001328  2ADF               	incf	indf2,f,c
  4524   00132A  EFA9  F009         	goto	l1727
  4525   00132E                     l3320:
  4526                           
  4527                           ;C:\Program Files\Microchip\xc8\v2.45\pic\sources\c99\common\doprnt.c: 1811:     fputc((
      +                          int)(*fmt)[0], fp);
  4528   00132E  501C               	movf	vfpfcnvrt@fmt^0,w,c
  4529   001330  6ED9               	movwf	fsr2l,c
  4530   001332  6ADA               	clrf	fsr2h,c
  4531   001334  CFDF FFF6          	movff	indf2,tblptrl
  4532   001338                     	if	1	;There is more than 1 active tblptr byte
  4533   001338  0E10               	movlw	high __smallconst
  4534   00133A  6EF7               	movwf	tblptrh,c
  4535   00133C                     	endif
  4536   00133C                     	if	1	;Program memory is < 0x10000, tblptru is always zero
  4537   00133C  6AF8               	clrf	tblptru,c
  4538   00133E                     	endif
  4539   00133E                     	if	0	;tblptru may be non-zero
  4540   00133E                     	endif
  4541   00133E  0008               	tblrd		*
  4542   001340  50F5               	movf	tablat,w,c
  4543   001342  6E11               	movwf	fputc@c^0,c
  4544   001344  6A12               	clrf	(fputc@c+1)^0,c
  4545   001346  C01B  F013         	movff	vfpfcnvrt@fp,fputc@fp
  4546   00134A  EC7E  F00B         	call	_fputc	;wreg free
  4547   00134E  EF91  F009         	goto	l3316
  4548   001352                     l1727:
  4549   001352  0012               	return		;funcret
  4550   001354                     __end_of_vfpfcnvrt:
  4551                           	callstack 0
  4552                           
  4553 ;; *************** function _fputc *****************
  4554 ;; Defined at:
  4555 ;;		line 8 in file "C:\Program Files\Microchip\xc8\v2.45\pic\sources\c99\common\nf_fputc.c"
  4556 ;; Parameters:    Size  Location     Type
  4557 ;;  c               2   16[COMRAM] int 
  4558 ;;  fp              1   18[COMRAM] PTR struct _IO_FILE
  4559 ;;		 -> sprintf@f(12), 
  4560 ;; Auto vars:     Size  Location     Type
  4561 ;;		None
  4562 ;; Return value:  Size  Location     Type
  4563 ;;                  2   16[COMRAM] int 
  4564 ;; Registers used:
  4565 ;;		wreg, fsr1l, fsr1h, fsr2l, fsr2h, status,2, status,0, cstack
  4566 ;; Tracked objects:
  4567 ;;		On entry : 0/0
  4568 ;;		On exit  : 0/0
  4569 ;;		Unchanged: 0/0
  4570 ;; Data sizes:     COMRAM   BANK0   BANK1   BANK2   BANK3   BANK4   BANK5   BANK6   BANK7   BANK8   BANK9  BANK10  BANK1
      +1  BANK12  BANK13  BANK14  BANK15
  4571 ;;      Params:         3       0       0       0       0       0       0       0       0       0       0       0       
      +0       0       0       0       0
  4572 ;;      Locals:         0       0       0       0       0       0       0       0       0       0       0       0       
      +0       0       0       0       0
  4573 ;;      Temps:          5       0       0       0       0       0       0       0       0       0       0       0       
      +0       0       0       0       0
  4574 ;;      Totals:         8       0       0       0       0       0       0       0       0       0       0       0       
      +0       0       0       0       0
  4575 ;;Total ram usage:        8 bytes
  4576 ;; Hardware stack levels used: 1
  4577 ;; Hardware stack levels required when called: 8
  4578 ;; This function calls:
  4579 ;;		_putch
  4580 ;; This function is called by:
  4581 ;;		_vfpfcnvrt
  4582 ;; This function uses a non-reentrant model
  4583 ;;
  4584                           
  4585                           	psect	text47
  4586   0016FC                     __ptext47:
  4587                           	callstack 0
  4588   0016FC                     _fputc:
  4589                           	callstack 17
  4590   0016FC  5013               	movf	fputc@fp^0,w,c
  4591   0016FE  B4D8               	btfsc	status,2,c
  4592   001700  EF84  F00B         	goto	u1321
  4593   001704  EF86  F00B         	goto	u1320
  4594   001708                     u1321:
  4595   001708  EF8E  F00B         	goto	l3172
  4596   00170C                     u1320:
  4597   00170C  5013               	movf	fputc@fp^0,w,c
  4598   00170E  A4D8               	btfss	status,2,c
  4599   001710  EF8C  F00B         	goto	u1331
  4600   001714  EF8E  F00B         	goto	u1330
  4601   001718                     u1331:
  4602   001718  EF93  F00B         	goto	l3174
  4603   00171C                     u1330:
  4604   00171C                     l3172:
  4605   00171C  5011               	movf	fputc@c^0,w,c
  4606   00171E  ECE3  F011         	call	_putch
  4607   001722  EFD2  F00B         	goto	l1767
  4608   001726                     l3174:
  4609   001726  5013               	movf	fputc@fp^0,w,c
  4610   001728  6ED9               	movwf	fsr2l,c
  4611   00172A  6ADA               	clrf	fsr2h,c
  4612   00172C  0E0A               	movlw	10
  4613   00172E  26D9               	addwf	fsr2l,f,c
  4614   001730  50DE               	movf	postinc2,w,c
  4615   001732  10DE               	iorwf	postinc2,w,c
  4616   001734  B4D8               	btfsc	status,2,c
  4617   001736  EF9F  F00B         	goto	u1341
  4618   00173A  EFA1  F00B         	goto	u1340
  4619   00173E                     u1341:
  4620   00173E  EFBA  F00B         	goto	l3178
  4621   001742                     u1340:
  4622   001742  5013               	movf	fputc@fp^0,w,c
  4623   001744  6ED9               	movwf	fsr2l,c
  4624   001746  6ADA               	clrf	fsr2h,c
  4625   001748  0E0A               	movlw	10
  4626   00174A  26D9               	addwf	fsr2l,f,c
  4627   00174C  5013               	movf	fputc@fp^0,w,c
  4628   00174E  6EE1               	movwf	fsr1l,c
  4629   001750  6AE2               	clrf	fsr1h,c
  4630   001752  0E03               	movlw	3
  4631   001754  26E1               	addwf	fsr1l,f,c
  4632   001756  50DE               	movf	postinc2,w,c
  4633   001758  5CE6               	subwf	postinc1,w,c
  4634   00175A  50E6               	movf	postinc1,w,c
  4635   00175C  0A80               	xorlw	128
  4636   00175E  6E18               	movwf	(??_fputc+4)^0,c
  4637   001760  50DE               	movf	postinc2,w,c
  4638   001762  0A80               	xorlw	128
  4639   001764  5818               	subwfb	(??_fputc+4)^0,w,c
  4640   001766  B0D8               	btfsc	status,0,c
  4641   001768  EFB8  F00B         	goto	u1351
  4642   00176C  EFBA  F00B         	goto	u1350
  4643   001770                     u1351:
  4644   001770  EFD2  F00B         	goto	l1767
  4645   001774                     u1350:
  4646   001774                     l3178:
  4647   001774  5013               	movf	fputc@fp^0,w,c
  4648   001776  6ED9               	movwf	fsr2l,c
  4649   001778  6ADA               	clrf	fsr2h,c
  4650   00177A  0E03               	movlw	3
  4651   00177C  26D9               	addwf	fsr2l,f,c
  4652   00177E  50DF               	movf	indf2,w,c
  4653   001780  6E14               	movwf	??_fputc^0,c
  4654   001782  5013               	movf	fputc@fp^0,w,c
  4655   001784  6ED9               	movwf	fsr2l,c
  4656   001786  6ADA               	clrf	fsr2h,c
  4657   001788  50DF               	movf	indf2,w,c
  4658   00178A  2414               	addwf	??_fputc^0,w,c
  4659   00178C  6ED9               	movwf	fsr2l,c
  4660   00178E  6ADA               	clrf	fsr2h,c
  4661   001790  C011  FFDF         	movff	fputc@c,indf2
  4662   001794  5013               	movf	fputc@fp^0,w,c
  4663   001796  6ED9               	movwf	fsr2l,c
  4664   001798  6ADA               	clrf	fsr2h,c
  4665   00179A  0E03               	movlw	3
  4666   00179C  26D9               	addwf	fsr2l,f,c
  4667   00179E  2ADE               	incf	postinc2,f,c
  4668   0017A0  0E00               	movlw	0
  4669   0017A2  22DD               	addwfc	postdec2,f,c
  4670   0017A4                     l1767:
  4671   0017A4  0012               	return		;funcret
  4672   0017A6                     __end_of_fputc:
  4673                           	callstack 0
  4674                           
  4675 ;; *************** function _putch *****************
  4676 ;; Defined at:
  4677 ;;		line 7 in file "C:\Program Files\Microchip\xc8\v2.45\pic\sources\c99\common\putch.c"
  4678 ;; Parameters:    Size  Location     Type
  4679 ;;  c               1    wreg     unsigned char 
  4680 ;; Auto vars:     Size  Location     Type
  4681 ;;  c               1    0[COMRAM] unsigned char 
  4682 ;; Return value:  Size  Location     Type
  4683 ;;                  1    wreg      void 
  4684 ;; Registers used:
  4685 ;;		wreg
  4686 ;; Tracked objects:
  4687 ;;		On entry : 0/0
  4688 ;;		On exit  : 0/0
  4689 ;;		Unchanged: 0/0
  4690 ;; Data sizes:     COMRAM   BANK0   BANK1   BANK2   BANK3   BANK4   BANK5   BANK6   BANK7   BANK8   BANK9  BANK10  BANK1
      +1  BANK12  BANK13  BANK14  BANK15
  4691 ;;      Params:         0       0       0       0       0       0       0       0       0       0       0       0       
      +0       0       0       0       0
  4692 ;;      Locals:         0       0       0       0       0       0       0       0       0       0       0       0       
      +0       0       0       0       0
  4693 ;;      Temps:          0       0       0       0       0       0       0       0       0       0       0       0       
      +0       0       0       0       0
  4694 ;;      Totals:         0       0       0       0       0       0       0       0       0       0       0       0       
      +0       0       0       0       0
  4695 ;;Total ram usage:        0 bytes
  4696 ;; Hardware stack levels used: 1
  4697 ;; Hardware stack levels required when called: 7
  4698 ;; This function calls:
  4699 ;;		Nothing
  4700 ;; This function is called by:
  4701 ;;		_fputc
  4702 ;; This function uses a non-reentrant model
  4703 ;;
  4704                           
  4705                           	psect	text48
  4706   0023C6                     __ptext48:
  4707                           	callstack 0
  4708   0023C6                     _putch:
  4709                           	callstack 17
  4710   0023C6  0012               	return		;funcret
  4711   0023C8                     __end_of_putch:
  4712                           	callstack 0
  4713                           
  4714 ;; *************** function _abs *****************
  4715 ;; Defined at:
  4716 ;;		line 1 in file "C:\Program Files\Microchip\xc8\v2.45\pic\sources\c99\common\abs.c"
  4717 ;; Parameters:    Size  Location     Type
  4718 ;;  a               2   22[COMRAM] int 
  4719 ;; Auto vars:     Size  Location     Type
  4720 ;;		None
  4721 ;; Return value:  Size  Location     Type
  4722 ;;                  2   22[COMRAM] int 
  4723 ;; Registers used:
  4724 ;;		wreg, status,2, status,0
  4725 ;; Tracked objects:
  4726 ;;		On entry : 0/0
  4727 ;;		On exit  : 0/0
  4728 ;;		Unchanged: 0/0
  4729 ;; Data sizes:     COMRAM   BANK0   BANK1   BANK2   BANK3   BANK4   BANK5   BANK6   BANK7   BANK8   BANK9  BANK10  BANK1
      +1  BANK12  BANK13  BANK14  BANK15
  4730 ;;      Params:         2       0       0       0       0       0       0       0       0       0       0       0       
      +0       0       0       0       0
  4731 ;;      Locals:         0       0       0       0       0       0       0       0       0       0       0       0       
      +0       0       0       0       0
  4732 ;;      Temps:          2       0       0       0       0       0       0       0       0       0       0       0       
      +0       0       0       0       0
  4733 ;;      Totals:         4       0       0       0       0       0       0       0       0       0       0       0       
      +0       0       0       0       0
  4734 ;;Total ram usage:        4 bytes
  4735 ;; Hardware stack levels used: 1
  4736 ;; Hardware stack levels required when called: 7
  4737 ;; This function calls:
  4738 ;;		Nothing
  4739 ;; This function is called by:
  4740 ;;		_vfpfcnvrt
  4741 ;; This function uses a non-reentrant model
  4742 ;;
  4743                           
  4744                           	psect	text49
  4745   001F12                     __ptext49:
  4746                           	callstack 0
  4747   001F12                     _abs:
  4748                           	callstack 18
  4749   001F12  BE18               	btfsc	(abs@a+1)^0,7,c
  4750   001F14  EF8E  F00F         	goto	u1361
  4751   001F18  EF90  F00F         	goto	u1360
  4752   001F1C                     u1361:
  4753   001F1C  EF96  F00F         	goto	l1752
  4754   001F20                     u1360:
  4755   001F20  C017  F017         	movff	abs@a,?_abs
  4756   001F24  C018  F018         	movff	abs@a+1,?_abs+1
  4757   001F28  EFA2  F00F         	goto	l1755
  4758   001F2C                     l1752:
  4759   001F2C  C017  F019         	movff	abs@a,??_abs
  4760   001F30  C018  F01A         	movff	abs@a+1,??_abs+1
  4761   001F34  1E19               	comf	??_abs^0,f,c
  4762   001F36  1E1A               	comf	(??_abs+1)^0,f,c
  4763   001F38  4A19               	infsnz	??_abs^0,f,c
  4764   001F3A  2A1A               	incf	(??_abs+1)^0,f,c
  4765   001F3C  C019  F017         	movff	??_abs,?_abs
  4766   001F40  C01A  F018         	movff	??_abs+1,?_abs+1
  4767   001F44                     l1755:
  4768   001F44  0012               	return		;funcret
  4769   001F46                     __end_of_abs:
  4770                           	callstack 0
  4771                           
  4772 ;; *************** function ___awmod *****************
  4773 ;; Defined at:
  4774 ;;		line 7 in file "C:\Program Files\Microchip\xc8\v2.45\pic\sources\c99\common\awmod.c"
  4775 ;; Parameters:    Size  Location     Type
  4776 ;;  dividend        2   16[COMRAM] int 
  4777 ;;  divisor         2   18[COMRAM] int 
  4778 ;; Auto vars:     Size  Location     Type
  4779 ;;  sign            1   21[COMRAM] unsigned char 
  4780 ;;  counter         1   20[COMRAM] unsigned char 
  4781 ;; Return value:  Size  Location     Type
  4782 ;;                  2   16[COMRAM] int 
  4783 ;; Registers used:
  4784 ;;		wreg, status,2, status,0
  4785 ;; Tracked objects:
  4786 ;;		On entry : 0/0
  4787 ;;		On exit  : 0/0
  4788 ;;		Unchanged: 0/0
  4789 ;; Data sizes:     COMRAM   BANK0   BANK1   BANK2   BANK3   BANK4   BANK5   BANK6   BANK7   BANK8   BANK9  BANK10  BANK1
      +1  BANK12  BANK13  BANK14  BANK15
  4790 ;;      Params:         4       0       0       0       0       0       0       0       0       0       0       0       
      +0       0       0       0       0
  4791 ;;      Locals:         2       0       0       0       0       0       0       0       0       0       0       0       
      +0       0       0       0       0
  4792 ;;      Temps:          0       0       0       0       0       0       0       0       0       0       0       0       
      +0       0       0       0       0
  4793 ;;      Totals:         6       0       0       0       0       0       0       0       0       0       0       0       
      +0       0       0       0       0
  4794 ;;Total ram usage:        6 bytes
  4795 ;; Hardware stack levels used: 1
  4796 ;; Hardware stack levels required when called: 7
  4797 ;; This function calls:
  4798 ;;		Nothing
  4799 ;; This function is called by:
  4800 ;;		_vfpfcnvrt
  4801 ;; This function uses a non-reentrant model
  4802 ;;
  4803                           
  4804                           	psect	text50
  4805   00164C                     __ptext50:
  4806                           	callstack 0
  4807   00164C                     ___awmod:
  4808                           	callstack 18
  4809   00164C  0E00               	movlw	0
  4810   00164E  6E16               	movwf	___awmod@sign^0,c
  4811   001650  BE12               	btfsc	(___awmod@dividend+1)^0,7,c
  4812   001652  EF2F  F00B         	goto	u1260
  4813   001656  EF2D  F00B         	goto	u1261
  4814   00165A                     u1261:
  4815   00165A  EF35  F00B         	goto	l3140
  4816   00165E                     u1260:
  4817   00165E  6C11               	negf	___awmod@dividend^0,c
  4818   001660  1E12               	comf	(___awmod@dividend+1)^0,f,c
  4819   001662  B0D8               	btfsc	status,0,c
  4820   001664  2A12               	incf	(___awmod@dividend+1)^0,f,c
  4821   001666  0E01               	movlw	1
  4822   001668  6E16               	movwf	___awmod@sign^0,c
  4823   00166A                     l3140:
  4824   00166A  BE14               	btfsc	(___awmod@divisor+1)^0,7,c
  4825   00166C  EF3C  F00B         	goto	u1270
  4826   001670  EF3A  F00B         	goto	u1271
  4827   001674                     u1271:
  4828   001674  EF40  F00B         	goto	l3144
  4829   001678                     u1270:
  4830   001678  6C13               	negf	___awmod@divisor^0,c
  4831   00167A  1E14               	comf	(___awmod@divisor+1)^0,f,c
  4832   00167C  B0D8               	btfsc	status,0,c
  4833   00167E  2A14               	incf	(___awmod@divisor+1)^0,f,c
  4834   001680                     l3144:
  4835   001680  5013               	movf	___awmod@divisor^0,w,c
  4836   001682  1014               	iorwf	(___awmod@divisor+1)^0,w,c
  4837   001684  B4D8               	btfsc	status,2,c
  4838   001686  EF47  F00B         	goto	u1281
  4839   00168A  EF49  F00B         	goto	u1280
  4840   00168E                     u1281:
  4841   00168E  EF6D  F00B         	goto	l3160
  4842   001692                     u1280:
  4843   001692  0E01               	movlw	1
  4844   001694  6E15               	movwf	___awmod@counter^0,c
  4845   001696  EF51  F00B         	goto	l3150
  4846   00169A                     l3148:
  4847   00169A  90D8               	bcf	status,0,c
  4848   00169C  3613               	rlcf	___awmod@divisor^0,f,c
  4849   00169E  3614               	rlcf	(___awmod@divisor+1)^0,f,c
  4850   0016A0  2A15               	incf	___awmod@counter^0,f,c
  4851   0016A2                     l3150:
  4852   0016A2  AE14               	btfss	(___awmod@divisor+1)^0,7,c
  4853   0016A4  EF56  F00B         	goto	u1291
  4854   0016A8  EF58  F00B         	goto	u1290
  4855   0016AC                     u1291:
  4856   0016AC  EF4D  F00B         	goto	l3148
  4857   0016B0                     u1290:
  4858   0016B0                     l3152:
  4859   0016B0  5013               	movf	___awmod@divisor^0,w,c
  4860   0016B2  5C11               	subwf	___awmod@dividend^0,w,c
  4861   0016B4  5014               	movf	(___awmod@divisor+1)^0,w,c
  4862   0016B6  5812               	subwfb	(___awmod@dividend+1)^0,w,c
  4863   0016B8  A0D8               	btfss	status,0,c
  4864   0016BA  EF61  F00B         	goto	u1301
  4865   0016BE  EF63  F00B         	goto	u1300
  4866   0016C2                     u1301:
  4867   0016C2  EF67  F00B         	goto	l3156
  4868   0016C6                     u1300:
  4869   0016C6  5013               	movf	___awmod@divisor^0,w,c
  4870   0016C8  5E11               	subwf	___awmod@dividend^0,f,c
  4871   0016CA  5014               	movf	(___awmod@divisor+1)^0,w,c
  4872   0016CC  5A12               	subwfb	(___awmod@dividend+1)^0,f,c
  4873   0016CE                     l3156:
  4874   0016CE  90D8               	bcf	status,0,c
  4875   0016D0  3214               	rrcf	(___awmod@divisor+1)^0,f,c
  4876   0016D2  3213               	rrcf	___awmod@divisor^0,f,c
  4877   0016D4  2E15               	decfsz	___awmod@counter^0,f,c
  4878   0016D6  EF58  F00B         	goto	l3152
  4879   0016DA                     l3160:
  4880   0016DA  5016               	movf	___awmod@sign^0,w,c
  4881   0016DC  B4D8               	btfsc	status,2,c
  4882   0016DE  EF73  F00B         	goto	u1311
  4883   0016E2  EF75  F00B         	goto	u1310
  4884   0016E6                     u1311:
  4885   0016E6  EF79  F00B         	goto	l3164
  4886   0016EA                     u1310:
  4887   0016EA  6C11               	negf	___awmod@dividend^0,c
  4888   0016EC  1E12               	comf	(___awmod@dividend+1)^0,f,c
  4889   0016EE  B0D8               	btfsc	status,0,c
  4890   0016F0  2A12               	incf	(___awmod@dividend+1)^0,f,c
  4891   0016F2                     l3164:
  4892   0016F2  C011  F011         	movff	___awmod@dividend,?___awmod
  4893   0016F6  C012  F012         	movff	___awmod@dividend+1,?___awmod+1
  4894   0016FA  0012               	return		;funcret
  4895   0016FC                     __end_of___awmod:
  4896                           	callstack 0
  4897                           
  4898 ;; *************** function ___awdiv *****************
  4899 ;; Defined at:
  4900 ;;		line 7 in file "C:\Program Files\Microchip\xc8\v2.45\pic\sources\c99\common\awdiv.c"
  4901 ;; Parameters:    Size  Location     Type
  4902 ;;  dividend        2   16[COMRAM] int 
  4903 ;;  divisor         2   18[COMRAM] int 
  4904 ;; Auto vars:     Size  Location     Type
  4905 ;;  quotient        2   22[COMRAM] int 
  4906 ;;  sign            1   21[COMRAM] unsigned char 
  4907 ;;  counter         1   20[COMRAM] unsigned char 
  4908 ;; Return value:  Size  Location     Type
  4909 ;;                  2   16[COMRAM] int 
  4910 ;; Registers used:
  4911 ;;		wreg, status,2, status,0
  4912 ;; Tracked objects:
  4913 ;;		On entry : 0/0
  4914 ;;		On exit  : 0/0
  4915 ;;		Unchanged: 0/0
  4916 ;; Data sizes:     COMRAM   BANK0   BANK1   BANK2   BANK3   BANK4   BANK5   BANK6   BANK7   BANK8   BANK9  BANK10  BANK1
      +1  BANK12  BANK13  BANK14  BANK15
  4917 ;;      Params:         4       0       0       0       0       0       0       0       0       0       0       0       
      +0       0       0       0       0
  4918 ;;      Locals:         4       0       0       0       0       0       0       0       0       0       0       0       
      +0       0       0       0       0
  4919 ;;      Temps:          0       0       0       0       0       0       0       0       0       0       0       0       
      +0       0       0       0       0
  4920 ;;      Totals:         8       0       0       0       0       0       0       0       0       0       0       0       
      +0       0       0       0       0
  4921 ;;Total ram usage:        8 bytes
  4922 ;; Hardware stack levels used: 1
  4923 ;; Hardware stack levels required when called: 7
  4924 ;; This function calls:
  4925 ;;		Nothing
  4926 ;; This function is called by:
  4927 ;;		_vfpfcnvrt
  4928 ;; This function uses a non-reentrant model
  4929 ;;
  4930                           
  4931                           	psect	text51
  4932   001354                     __ptext51:
  4933                           	callstack 0
  4934   001354                     ___awdiv:
  4935                           	callstack 18
  4936   001354  0E00               	movlw	0
  4937   001356  6E16               	movwf	___awdiv@sign^0,c
  4938   001358  BE14               	btfsc	(___awdiv@divisor+1)^0,7,c
  4939   00135A  EFB3  F009         	goto	u1200
  4940   00135E  EFB1  F009         	goto	u1201
  4941   001362                     u1201:
  4942   001362  EFB9  F009         	goto	l3096
  4943   001366                     u1200:
  4944   001366  6C13               	negf	___awdiv@divisor^0,c
  4945   001368  1E14               	comf	(___awdiv@divisor+1)^0,f,c
  4946   00136A  B0D8               	btfsc	status,0,c
  4947   00136C  2A14               	incf	(___awdiv@divisor+1)^0,f,c
  4948   00136E  0E01               	movlw	1
  4949   001370  6E16               	movwf	___awdiv@sign^0,c
  4950   001372                     l3096:
  4951   001372  BE12               	btfsc	(___awdiv@dividend+1)^0,7,c
  4952   001374  EFC0  F009         	goto	u1210
  4953   001378  EFBE  F009         	goto	u1211
  4954   00137C                     u1211:
  4955   00137C  EFC6  F009         	goto	l3102
  4956   001380                     u1210:
  4957   001380  6C11               	negf	___awdiv@dividend^0,c
  4958   001382  1E12               	comf	(___awdiv@dividend+1)^0,f,c
  4959   001384  B0D8               	btfsc	status,0,c
  4960   001386  2A12               	incf	(___awdiv@dividend+1)^0,f,c
  4961   001388  0E01               	movlw	1
  4962   00138A  1A16               	xorwf	___awdiv@sign^0,f,c
  4963   00138C                     l3102:
  4964   00138C  0E00               	movlw	0
  4965   00138E  6E18               	movwf	(___awdiv@quotient+1)^0,c
  4966   001390  0E00               	movlw	0
  4967   001392  6E17               	movwf	___awdiv@quotient^0,c
  4968   001394  5013               	movf	___awdiv@divisor^0,w,c
  4969   001396  1014               	iorwf	(___awdiv@divisor+1)^0,w,c
  4970   001398  B4D8               	btfsc	status,2,c
  4971   00139A  EFD1  F009         	goto	u1221
  4972   00139E  EFD3  F009         	goto	u1220
  4973   0013A2                     u1221:
  4974   0013A2  EFFB  F009         	goto	l3124
  4975   0013A6                     u1220:
  4976   0013A6  0E01               	movlw	1
  4977   0013A8  6E15               	movwf	___awdiv@counter^0,c
  4978   0013AA  EFDB  F009         	goto	l3110
  4979   0013AE                     l3108:
  4980   0013AE  90D8               	bcf	status,0,c
  4981   0013B0  3613               	rlcf	___awdiv@divisor^0,f,c
  4982   0013B2  3614               	rlcf	(___awdiv@divisor+1)^0,f,c
  4983   0013B4  2A15               	incf	___awdiv@counter^0,f,c
  4984   0013B6                     l3110:
  4985   0013B6  AE14               	btfss	(___awdiv@divisor+1)^0,7,c
  4986   0013B8  EFE0  F009         	goto	u1231
  4987   0013BC  EFE2  F009         	goto	u1230
  4988   0013C0                     u1231:
  4989   0013C0  EFD7  F009         	goto	l3108
  4990   0013C4                     u1230:
  4991   0013C4                     l3112:
  4992   0013C4  90D8               	bcf	status,0,c
  4993   0013C6  3617               	rlcf	___awdiv@quotient^0,f,c
  4994   0013C8  3618               	rlcf	(___awdiv@quotient+1)^0,f,c
  4995   0013CA  5013               	movf	___awdiv@divisor^0,w,c
  4996   0013CC  5C11               	subwf	___awdiv@dividend^0,w,c
  4997   0013CE  5014               	movf	(___awdiv@divisor+1)^0,w,c
  4998   0013D0  5812               	subwfb	(___awdiv@dividend+1)^0,w,c
  4999   0013D2  A0D8               	btfss	status,0,c
  5000   0013D4  EFEE  F009         	goto	u1241
  5001   0013D8  EFF0  F009         	goto	u1240
  5002   0013DC                     u1241:
  5003   0013DC  EFF5  F009         	goto	l3120
  5004   0013E0                     u1240:
  5005   0013E0  5013               	movf	___awdiv@divisor^0,w,c
  5006   0013E2  5E11               	subwf	___awdiv@dividend^0,f,c
  5007   0013E4  5014               	movf	(___awdiv@divisor+1)^0,w,c
  5008   0013E6  5A12               	subwfb	(___awdiv@dividend+1)^0,f,c
  5009   0013E8  8017               	bsf	___awdiv@quotient^0,0,c
  5010   0013EA                     l3120:
  5011   0013EA  90D8               	bcf	status,0,c
  5012   0013EC  3214               	rrcf	(___awdiv@divisor+1)^0,f,c
  5013   0013EE  3213               	rrcf	___awdiv@divisor^0,f,c
  5014   0013F0  2E15               	decfsz	___awdiv@counter^0,f,c
  5015   0013F2  EFE2  F009         	goto	l3112
  5016   0013F6                     l3124:
  5017   0013F6  5016               	movf	___awdiv@sign^0,w,c
  5018   0013F8  B4D8               	btfsc	status,2,c
  5019   0013FA  EF01  F00A         	goto	u1251
  5020   0013FE  EF03  F00A         	goto	u1250
  5021   001402                     u1251:
  5022   001402  EF07  F00A         	goto	l3128
  5023   001406                     u1250:
  5024   001406  6C17               	negf	___awdiv@quotient^0,c
  5025   001408  1E18               	comf	(___awdiv@quotient+1)^0,f,c
  5026   00140A  B0D8               	btfsc	status,0,c
  5027   00140C  2A18               	incf	(___awdiv@quotient+1)^0,f,c
  5028   00140E                     l3128:
  5029   00140E  C017  F011         	movff	___awdiv@quotient,?___awdiv
  5030   001412  C018  F012         	movff	___awdiv@quotient+1,?___awdiv+1
  5031   001416  0012               	return		;funcret
  5032   001418                     __end_of___awdiv:
  5033                           	callstack 0
  5034                           
  5035 ;; *************** function _memset *****************
  5036 ;; Defined at:
  5037 ;;		line 3 in file "C:\Program Files\Microchip\xc8\v2.45\pic\sources\c99\common\memset.c"
  5038 ;; Parameters:    Size  Location     Type
  5039 ;;  dest            1   16[COMRAM] PTR void 
  5040 ;;		 -> hex_str(2), dummy_str(2), 
  5041 ;;  c               2   17[COMRAM] int 
  5042 ;;  n               2   19[COMRAM] unsigned int 
  5043 ;; Auto vars:     Size  Location     Type
  5044 ;;  p               1   21[COMRAM] PTR unsigned char 
  5045 ;;		 -> hex_str(2), dummy_str(2), 
  5046 ;; Return value:  Size  Location     Type
  5047 ;;                  1    wreg      PTR void 
  5048 ;; Registers used:
  5049 ;;		wreg, fsr2l, fsr2h, status,2, status,0
  5050 ;; Tracked objects:
  5051 ;;		On entry : 0/0
  5052 ;;		On exit  : 0/0
  5053 ;;		Unchanged: 0/0
  5054 ;; Data sizes:     COMRAM   BANK0   BANK1   BANK2   BANK3   BANK4   BANK5   BANK6   BANK7   BANK8   BANK9  BANK10  BANK1
      +1  BANK12  BANK13  BANK14  BANK15
  5055 ;;      Params:         5       0       0       0       0       0       0       0       0       0       0       0       
      +0       0       0       0       0
  5056 ;;      Locals:         1       0       0       0       0       0       0       0       0       0       0       0       
      +0       0       0       0       0
  5057 ;;      Temps:          0       0       0       0       0       0       0       0       0       0       0       0       
      +0       0       0       0       0
  5058 ;;      Totals:         6       0       0       0       0       0       0       0       0       0       0       0       
      +0       0       0       0       0
  5059 ;;Total ram usage:        6 bytes
  5060 ;; Hardware stack levels used: 1
  5061 ;; Hardware stack levels required when called: 7
  5062 ;; This function calls:
  5063 ;;		Nothing
  5064 ;; This function is called by:
  5065 ;;		_convert_byte_to_str
  5066 ;;		_convert_decimal_to_str
  5067 ;; This function uses a non-reentrant model
  5068 ;;
  5069                           
  5070                           	psect	text52
  5071   001F76                     __ptext52:
  5072                           	callstack 0
  5073   001F76                     _memset:
  5074                           	callstack 21
  5075   001F76  C011  F016         	movff	memset@dest,memset@p
  5076   001F7A  EFC5  F00F         	goto	l3748
  5077   001F7E                     l3744:
  5078   001F7E  5016               	movf	memset@p^0,w,c
  5079   001F80  6ED9               	movwf	fsr2l,c
  5080   001F82  6ADA               	clrf	fsr2h,c
  5081   001F84  C012  FFDF         	movff	memset@c,indf2
  5082   001F88  2A16               	incf	memset@p^0,f,c
  5083   001F8A                     l3748:
  5084   001F8A  0614               	decf	memset@n^0,f,c
  5085   001F8C  A0D8               	btfss	status,0,c
  5086   001F8E  0615               	decf	(memset@n+1)^0,f,c
  5087   001F90  2814               	incf	memset@n^0,w,c
  5088   001F92  E106               	bnz	u1781
  5089   001F94  2815               	incf	(memset@n+1)^0,w,c
  5090   001F96  A4D8               	btfss	status,2,c
  5091   001F98  EFD0  F00F         	goto	u1781
  5092   001F9C  EFD2  F00F         	goto	u1780
  5093   001FA0                     u1781:
  5094   001FA0  EFBF  F00F         	goto	l3744
  5095   001FA4                     u1780:
  5096   001FA4  0012               	return		;funcret
  5097   001FA6                     __end_of_memset:
  5098                           	callstack 0
  5099                           
  5100 ;; *************** function _EUSART_Send_String *****************
  5101 ;; Defined at:
  5102 ;;		line 248 in file "mcc_generated_files/uart/src/eusart.c"
  5103 ;; Parameters:    Size  Location     Type
  5104 ;;  str             2   20[COMRAM] PTR unsigned char 
  5105 ;;		 -> STR_4(12), hex_str(2), STR_3(15), STR_2(8), 
  5106 ;;		 -> dummy_str(2), STR_1(8), 
  5107 ;; Auto vars:     Size  Location     Type
  5108 ;;  i               1   24[COMRAM] unsigned char 
  5109 ;; Return value:  Size  Location     Type
  5110 ;;                  1    wreg      void 
  5111 ;; Registers used:
  5112 ;;		wreg, fsr0l, fsr0h, status,2, status,0, tblptrl, tblptrh, tblptru, cstack
  5113 ;; Tracked objects:
  5114 ;;		On entry : 0/0
  5115 ;;		On exit  : 0/0
  5116 ;;		Unchanged: 0/0
  5117 ;; Data sizes:     COMRAM   BANK0   BANK1   BANK2   BANK3   BANK4   BANK5   BANK6   BANK7   BANK8   BANK9  BANK10  BANK1
      +1  BANK12  BANK13  BANK14  BANK15
  5118 ;;      Params:         2       0       0       0       0       0       0       0       0       0       0       0       
      +0       0       0       0       0
  5119 ;;      Locals:         1       0       0       0       0       0       0       0       0       0       0       0       
      +0       0       0       0       0
  5120 ;;      Temps:          2       0       0       0       0       0       0       0       0       0       0       0       
      +0       0       0       0       0
  5121 ;;      Totals:         5       0       0       0       0       0       0       0       0       0       0       0       
      +0       0       0       0       0
  5122 ;;Total ram usage:        5 bytes
  5123 ;; Hardware stack levels used: 1
  5124 ;; Hardware stack levels required when called: 8
  5125 ;; This function calls:
  5126 ;;		_EUSART_IsTxReady
  5127 ;;		_EUSART_Write
  5128 ;;		_strlen
  5129 ;; This function is called by:
  5130 ;;		_EUSART_Send_Date
  5131 ;;		_EUSART_Send_Time
  5132 ;;		_EUSART_Send_Temp
  5133 ;; This function uses a non-reentrant model
  5134 ;;
  5135                           
  5136                           	psect	text53
  5137   0018EA                     __ptext53:
  5138                           	callstack 0
  5139   0018EA                     _EUSART_Send_String:
  5140                           	callstack 21
  5141   0018EA                     
  5142                           ;mcc_generated_files/uart/src/eusart.c: 249:     uint8_t i = 0;
  5143   0018EA  0E00               	movlw	0
  5144   0018EC  6E19               	movwf	EUSART_Send_String@i^0,c
  5145                           
  5146                           ;mcc_generated_files/uart/src/eusart.c: 250:     for(i = 0; i < strlen(str); i++){
  5147   0018EE  0E00               	movlw	0
  5148   0018F0  6E19               	movwf	EUSART_Send_String@i^0,c
  5149   0018F2  EF9F  F00C         	goto	l3858
  5150   0018F6                     l3852:
  5151   0018F6  EC57  F010         	call	_EUSART_IsTxReady	;wreg free
  5152   0018FA  0900               	iorlw	0
  5153   0018FC  B4D8               	btfsc	status,2,c
  5154   0018FE  EF83  F00C         	goto	u1821
  5155   001902  EF85  F00C         	goto	u1820
  5156   001906                     u1821:
  5157   001906  EF7B  F00C         	goto	l3852
  5158   00190A                     u1820:
  5159   00190A                     
  5160                           ;mcc_generated_files/uart/src/eusart.c: 252:         EUSART_Write(str[i]);
  5161   00190A  5019               	movf	EUSART_Send_String@i^0,w,c
  5162   00190C  2415               	addwf	EUSART_Send_String@str^0,w,c
  5163   00190E  6E17               	movwf	??_EUSART_Send_String^0,c
  5164   001910  0E00               	movlw	0
  5165   001912  2016               	addwfc	(EUSART_Send_String@str+1)^0,w,c
  5166   001914  6E18               	movwf	(??_EUSART_Send_String+1)^0,c
  5167   001916  C017  FFF6         	movff	??_EUSART_Send_String,tblptrl
  5168   00191A  C018  FFF7         	movff	??_EUSART_Send_String+1,tblptrh
  5169   00191E  0E00               	movlw	low (__smallconst shr (0+16))
  5170   001920  6EF8               	movwf	tblptru,c
  5171   001922  0E0F               	movlw	(high __ramtop+-1)
  5172   001924  64F7               	cpfsgt	tblptrh,c
  5173   001926  D003               	bra	u1837
  5174   001928  0008               	tblrd		*
  5175   00192A  50F5               	movf	tablat,w,c
  5176   00192C  D005               	bra	u1830
  5177   00192E                     u1837:
  5178   00192E  CFF6 FFE9          	movff	tblptrl,fsr0l
  5179   001932  CFF7 FFEA          	movff	tblptrh,fsr0h
  5180   001936  50EF               	movf	indf0,w,c
  5181   001938                     u1830:
  5182   001938  EC95  F011         	call	_EUSART_Write
  5183   00193C                     
  5184                           ;mcc_generated_files/uart/src/eusart.c: 253:     }
  5185   00193C  2A19               	incf	EUSART_Send_String@i^0,f,c
  5186   00193E                     l3858:
  5187   00193E  C015  F011         	movff	EUSART_Send_String@str,strlen@s
  5188   001942  C016  F012         	movff	EUSART_Send_String@str+1,strlen@s+1
  5189   001946  EC90  F00E         	call	_strlen	;wreg free
  5190   00194A  5019               	movf	EUSART_Send_String@i^0,w,c
  5191   00194C  6E17               	movwf	??_EUSART_Send_String^0,c
  5192   00194E  6A18               	clrf	(??_EUSART_Send_String+1)^0,c
  5193   001950  5011               	movf	?_strlen^0,w,c
  5194   001952  5C17               	subwf	??_EUSART_Send_String^0,w,c
  5195   001954  5012               	movf	(?_strlen+1)^0,w,c
  5196   001956  5818               	subwfb	(??_EUSART_Send_String+1)^0,w,c
  5197   001958  A0D8               	btfss	status,0,c
  5198   00195A  EFB1  F00C         	goto	u1841
  5199   00195E  EFB3  F00C         	goto	u1840
  5200   001962                     u1841:
  5201   001962  EF7B  F00C         	goto	l3852
  5202   001966                     u1840:
  5203   001966  0012               	return		;funcret
  5204   001968                     __end_of_EUSART_Send_String:
  5205                           	callstack 0
  5206                           
  5207 ;; *************** function _strlen *****************
  5208 ;; Defined at:
  5209 ;;		line 5 in file "C:\Program Files\Microchip\xc8\v2.45\pic\sources\c99\common\strlen.c"
  5210 ;; Parameters:    Size  Location     Type
  5211 ;;  s               2   16[COMRAM] PTR const unsigned char 
  5212 ;;		 -> STR_4(12), hex_str(2), STR_3(15), STR_2(8), 
  5213 ;;		 -> dummy_str(2), STR_1(8), 
  5214 ;; Auto vars:     Size  Location     Type
  5215 ;;  a               2   18[COMRAM] PTR const unsigned char 
  5216 ;;		 -> STR_4(12), hex_str(2), STR_3(15), STR_2(8), 
  5217 ;;		 -> dummy_str(2), STR_1(8), 
  5218 ;; Return value:  Size  Location     Type
  5219 ;;                  2   16[COMRAM] unsigned int 
  5220 ;; Registers used:
  5221 ;;		wreg, fsr0l, fsr0h, status,2, status,0, tblptrl, tblptrh, tblptru
  5222 ;; Tracked objects:
  5223 ;;		On entry : 0/0
  5224 ;;		On exit  : 0/0
  5225 ;;		Unchanged: 0/0
  5226 ;; Data sizes:     COMRAM   BANK0   BANK1   BANK2   BANK3   BANK4   BANK5   BANK6   BANK7   BANK8   BANK9  BANK10  BANK1
      +1  BANK12  BANK13  BANK14  BANK15
  5227 ;;      Params:         2       0       0       0       0       0       0       0       0       0       0       0       
      +0       0       0       0       0
  5228 ;;      Locals:         2       0       0       0       0       0       0       0       0       0       0       0       
      +0       0       0       0       0
  5229 ;;      Temps:          0       0       0       0       0       0       0       0       0       0       0       0       
      +0       0       0       0       0
  5230 ;;      Totals:         4       0       0       0       0       0       0       0       0       0       0       0       
      +0       0       0       0       0
  5231 ;;Total ram usage:        4 bytes
  5232 ;; Hardware stack levels used: 1
  5233 ;; Hardware stack levels required when called: 7
  5234 ;; This function calls:
  5235 ;;		Nothing
  5236 ;; This function is called by:
  5237 ;;		_EUSART_Send_String
  5238 ;; This function uses a non-reentrant model
  5239 ;;
  5240                           
  5241                           	psect	text54
  5242   001D20                     __ptext54:
  5243                           	callstack 0
  5244   001D20                     _strlen:
  5245                           	callstack 21
  5246   001D20  C011  F013         	movff	strlen@s,strlen@a
  5247   001D24  C012  F014         	movff	strlen@s+1,strlen@a+1
  5248   001D28  EF98  F00E         	goto	l3736
  5249   001D2C                     l3734:
  5250   001D2C  4A11               	infsnz	strlen@s^0,f,c
  5251   001D2E  2A12               	incf	(strlen@s+1)^0,f,c
  5252   001D30                     l3736:
  5253   001D30  C011  FFF6         	movff	strlen@s,tblptrl
  5254   001D34  C012  FFF7         	movff	strlen@s+1,tblptrh
  5255   001D38  0E00               	movlw	low (__smallconst shr (0+16))
  5256   001D3A  6EF8               	movwf	tblptru,c
  5257   001D3C  0E0F               	movlw	(high __ramtop+-1)
  5258   001D3E  64F7               	cpfsgt	tblptrh,c
  5259   001D40  D003               	bra	u1767
  5260   001D42  0008               	tblrd		*
  5261   001D44  50F5               	movf	tablat,w,c
  5262   001D46  D005               	bra	u1760
  5263   001D48                     u1767:
  5264   001D48  CFF6 FFE9          	movff	tblptrl,fsr0l
  5265   001D4C  CFF7 FFEA          	movff	tblptrh,fsr0h
  5266   001D50  50EF               	movf	indf0,w,c
  5267   001D52                     u1760:
  5268   001D52  0900               	iorlw	0
  5269   001D54  A4D8               	btfss	status,2,c
  5270   001D56  EFAF  F00E         	goto	u1771
  5271   001D5A  EFB1  F00E         	goto	u1770
  5272   001D5E                     u1771:
  5273   001D5E  EF96  F00E         	goto	l3734
  5274   001D62                     u1770:
  5275   001D62  5013               	movf	strlen@a^0,w,c
  5276   001D64  5C11               	subwf	strlen@s^0,w,c
  5277   001D66  6E11               	movwf	?_strlen^0,c
  5278   001D68  5014               	movf	(strlen@a+1)^0,w,c
  5279   001D6A  5812               	subwfb	(strlen@s+1)^0,w,c
  5280   001D6C  6E12               	movwf	(?_strlen+1)^0,c
  5281   001D6E  0012               	return		;funcret
  5282   001D70                     __end_of_strlen:
  5283                           	callstack 0
  5284                           
  5285 ;; *************** function _EUSART_Write *****************
  5286 ;; Defined at:
  5287 ;;		line 243 in file "mcc_generated_files/uart/src/eusart.c"
  5288 ;; Parameters:    Size  Location     Type
  5289 ;;  txData          1    wreg     unsigned char 
  5290 ;; Auto vars:     Size  Location     Type
  5291 ;;  txData          1   16[COMRAM] unsigned char 
  5292 ;; Return value:  Size  Location     Type
  5293 ;;                  1    wreg      void 
  5294 ;; Registers used:
  5295 ;;		wreg
  5296 ;; Tracked objects:
  5297 ;;		On entry : 0/0
  5298 ;;		On exit  : 0/0
  5299 ;;		Unchanged: 0/0
  5300 ;; Data sizes:     COMRAM   BANK0   BANK1   BANK2   BANK3   BANK4   BANK5   BANK6   BANK7   BANK8   BANK9  BANK10  BANK1
      +1  BANK12  BANK13  BANK14  BANK15
  5301 ;;      Params:         0       0       0       0       0       0       0       0       0       0       0       0       
      +0       0       0       0       0
  5302 ;;      Locals:         1       0       0       0       0       0       0       0       0       0       0       0       
      +0       0       0       0       0
  5303 ;;      Temps:          0       0       0       0       0       0       0       0       0       0       0       0       
      +0       0       0       0       0
  5304 ;;      Totals:         1       0       0       0       0       0       0       0       0       0       0       0       
      +0       0       0       0       0
  5305 ;;Total ram usage:        1 bytes
  5306 ;; Hardware stack levels used: 1
  5307 ;; Hardware stack levels required when called: 7
  5308 ;; This function calls:
  5309 ;;		Nothing
  5310 ;; This function is called by:
  5311 ;;		_EUSART_Send_String
  5312 ;;		_EUSART_Send_Date
  5313 ;;		_EUSART_Send_Time
  5314 ;;		_EUSART_Send_Temp
  5315 ;; This function uses a non-reentrant model
  5316 ;;
  5317                           
  5318                           	psect	text55
  5319   00232A                     __ptext55:
  5320                           	callstack 0
  5321   00232A                     _EUSART_Write:
  5322                           	callstack 22
  5323                           
  5324                           ;incstack = 0
  5325                           ;EUSART_Write@txData stored from wreg
  5326   00232A  6E11               	movwf	EUSART_Write@txData^0,c
  5327   00232C                     
  5328                           ;mcc_generated_files/uart/src/eusart.c: 243: void EUSART_Write(uint8_t txData);mcc_gener
      +                          ated_files/uart/src/eusart.c: 244: {;mcc_generated_files/uart/src/eusart.c: 245:     TXR
      +                          EG = txData;
  5329   00232C  C011  FFAD         	movff	EUSART_Write@txData,4013	;volatile
  5330   002330  0012               	return		;funcret
  5331   002332                     __end_of_EUSART_Write:
  5332                           	callstack 0
  5333                           
  5334 ;; *************** function _EUSART_IsTxReady *****************
  5335 ;; Defined at:
  5336 ;;		line 198 in file "mcc_generated_files/uart/src/eusart.c"
  5337 ;; Parameters:    Size  Location     Type
  5338 ;;		None
  5339 ;; Auto vars:     Size  Location     Type
  5340 ;;		None
  5341 ;; Return value:  Size  Location     Type
  5342 ;;                  1    wreg      _Bool 
  5343 ;; Registers used:
  5344 ;;		wreg, status,2
  5345 ;; Tracked objects:
  5346 ;;		On entry : 0/0
  5347 ;;		On exit  : 0/0
  5348 ;;		Unchanged: 0/0
  5349 ;; Data sizes:     COMRAM   BANK0   BANK1   BANK2   BANK3   BANK4   BANK5   BANK6   BANK7   BANK8   BANK9  BANK10  BANK1
      +1  BANK12  BANK13  BANK14  BANK15
  5350 ;;      Params:         0       0       0       0       0       0       0       0       0       0       0       0       
      +0       0       0       0       0
  5351 ;;      Locals:         1       0       0       0       0       0       0       0       0       0       0       0       
      +0       0       0       0       0
  5352 ;;      Temps:          0       0       0       0       0       0       0       0       0       0       0       0       
      +0       0       0       0       0
  5353 ;;      Totals:         1       0       0       0       0       0       0       0       0       0       0       0       
      +0       0       0       0       0
  5354 ;;Total ram usage:        1 bytes
  5355 ;; Hardware stack levels used: 1
  5356 ;; Hardware stack levels required when called: 7
  5357 ;; This function calls:
  5358 ;;		Nothing
  5359 ;; This function is called by:
  5360 ;;		_EUSART_Send_String
  5361 ;;		_EUSART_Send_Date
  5362 ;;		_EUSART_Send_Time
  5363 ;;		_EUSART_Send_Temp
  5364 ;; This function uses a non-reentrant model
  5365 ;;
  5366                           
  5367                           	psect	text56
  5368   0020AE                     __ptext56:
  5369                           	callstack 0
  5370   0020AE                     _EUSART_IsTxReady:
  5371                           	callstack 21
  5372   0020AE                     
  5373                           ;mcc_generated_files/uart/src/eusart.c: 200:     return (_Bool)(PIR1bits.TX1IF && TXSTAb
      +                          its.TXEN);
  5374   0020AE  0E00               	movlw	0
  5375   0020B0  6E11               	movwf	_EUSART_IsTxReady$2097^0,c
  5376   0020B2  A89E               	btfss	158,4,c	;volatile
  5377   0020B4  EF5E  F010         	goto	u1741
  5378   0020B8  EF60  F010         	goto	u1740
  5379   0020BC                     u1741:
  5380   0020BC  EF69  F010         	goto	l859
  5381   0020C0                     u1740:
  5382   0020C0  AAAC               	btfss	172,5,c	;volatile
  5383   0020C2  EF65  F010         	goto	u1751
  5384   0020C6  EF67  F010         	goto	u1750
  5385   0020CA                     u1751:
  5386   0020CA  EF69  F010         	goto	l859
  5387   0020CE                     u1750:
  5388   0020CE  0E01               	movlw	1
  5389   0020D0  6E11               	movwf	_EUSART_IsTxReady$2097^0,c
  5390   0020D2                     l859:
  5391   0020D2  5011               	movf	_EUSART_IsTxReady$2097^0,w,c
  5392   0020D4  0012               	return		;funcret
  5393   0020D6                     __end_of_EUSART_IsTxReady:
  5394                           	callstack 0
  5395                           
  5396 ;; *************** function _INTERRUPT_InterruptManagerHigh *****************
  5397 ;; Defined at:
  5398 ;;		line 77 in file "mcc_generated_files/system/src/interrupt.c"
  5399 ;; Parameters:    Size  Location     Type
  5400 ;;		None
  5401 ;; Auto vars:     Size  Location     Type
  5402 ;;		None
  5403 ;; Return value:  Size  Location     Type
  5404 ;;                  1    wreg      void 
  5405 ;; Registers used:
  5406 ;;		wreg, fsr2l, fsr2h, status,2, status,0, pcl, pclath, pclatu, tosl, tblptrl, tblptrh, tblptru, prodl, prodh, cstack
  5407 ;; Tracked objects:
  5408 ;;		On entry : 0/0
  5409 ;;		On exit  : 0/0
  5410 ;;		Unchanged: 0/0
  5411 ;; Data sizes:     COMRAM   BANK0   BANK1   BANK2   BANK3   BANK4   BANK5   BANK6   BANK7   BANK8   BANK9  BANK10  BANK1
      +1  BANK12  BANK13  BANK14  BANK15
  5412 ;;      Params:         0       0       0       0       0       0       0       0       0       0       0       0       
      +0       0       0       0       0
  5413 ;;      Locals:         0       0       0       0       0       0       0       0       0       0       0       0       
      +0       0       0       0       0
  5414 ;;      Temps:         10       0       0       0       0       0       0       0       0       0       0       0       
      +0       0       0       0       0
  5415 ;;      Totals:        10       0       0       0       0       0       0       0       0       0       0       0       
      +0       0       0       0       0
  5416 ;;Total ram usage:       10 bytes
  5417 ;; Hardware stack levels used: 1
  5418 ;; Hardware stack levels required when called: 6
  5419 ;; This function calls:
  5420 ;;		NULL
  5421 ;;		_I2C_MasterIsr
  5422 ;; This function is called by:
  5423 ;;		Interrupt level 2
  5424 ;; This function uses a non-reentrant model
  5425 ;;
  5426                           
  5427                           	psect	intcode
  5428   000008                     __pintcode:
  5429                           	callstack 0
  5430   000008                     _INTERRUPT_InterruptManagerHigh:
  5431                           	callstack 17
  5432                           
  5433                           ;incstack = 0
  5434   000008  825D               	bsf	int$flags,1,c	;set compiler interrupt flag (level 2)
  5435   00000A  CFFA F007          	movff	pclath,??_INTERRUPT_InterruptManagerHigh
  5436   00000E  CFFB F008          	movff	pclatu,??_INTERRUPT_InterruptManagerHigh+1
  5437   000012  CFD9 F009          	movff	fsr2l,??_INTERRUPT_InterruptManagerHigh+2
  5438   000016  CFDA F00A          	movff	fsr2h,??_INTERRUPT_InterruptManagerHigh+3
  5439   00001A  CFF3 F00B          	movff	prodl,??_INTERRUPT_InterruptManagerHigh+4
  5440   00001E  CFF4 F00C          	movff	prodh,??_INTERRUPT_InterruptManagerHigh+5
  5441   000022  CFF6 F00D          	movff	tblptrl,??_INTERRUPT_InterruptManagerHigh+6
  5442   000026  CFF7 F00E          	movff	tblptrh,??_INTERRUPT_InterruptManagerHigh+7
  5443   00002A  CFF8 F00F          	movff	tblptru,??_INTERRUPT_InterruptManagerHigh+8
  5444   00002E  CFF5 F010          	movff	tablat,??_INTERRUPT_InterruptManagerHigh+9
  5445   000032                     
  5446                           ;mcc_generated_files/system/src/interrupt.c: 80:     if(PIE2bits.BCLIE == 1 && PIR2bits.
      +                          BCLIF == 1)
  5447   000032  A6A0               	btfss	160,3,c	;volatile
  5448   000034  EF1E  F000         	goto	i2u210_41
  5449   000038  EF20  F000         	goto	i2u210_40
  5450   00003C                     i2u210_41:
  5451   00003C  EF35  F000         	goto	i2l699
  5452   000040                     i2u210_40:
  5453   000040  A6A1               	btfss	161,3,c	;volatile
  5454   000042  EF25  F000         	goto	i2u211_41
  5455   000046  EF27  F000         	goto	i2u211_40
  5456   00004A                     i2u211_41:
  5457   00004A  EF35  F000         	goto	i2l699
  5458   00004E                     i2u211_40:
  5459   00004E                     i2l4114:
  5460                           
  5461                           ;mcc_generated_files/system/src/interrupt.c: 81:     {;mcc_generated_files/system/src/in
      +                          terrupt.c: 82:         MSSP_InterruptHandler();
  5462   00004E  D802               	call	i2u212_48
  5463   000050  EF33  F000         	goto	i2u212_49
  5464   000054                     i2u212_48:
  5465   000054  0005               	push	
  5466   000056  6EFA               	movwf	pclath,c
  5467   000058  5051               	movf	_MSSP_InterruptHandler^0,w,c
  5468   00005A  6EFD               	movwf	tosl,c
  5469   00005C  5052               	movf	(_MSSP_InterruptHandler+1)^0,w,c
  5470   00005E  6EFE               	movwf	tosh,c
  5471   000060  6AFF               	clrf	tosu,c
  5472   000062  50FA               	movf	pclath,w,c
  5473   000064  0012               	return		;indir
  5474   000066                     i2u212_49:
  5475                           
  5476                           ;mcc_generated_files/system/src/interrupt.c: 83:     }
  5477   000066  EF45  F000         	goto	i2l703
  5478   00006A                     i2l699:
  5479   00006A  A69D               	btfss	157,3,c	;volatile
  5480   00006C  EF3A  F000         	goto	i2u213_41
  5481   000070  EF3C  F000         	goto	i2u213_40
  5482   000074                     i2u213_41:
  5483   000074  EF45  F000         	goto	i2l703
  5484   000078                     i2u213_40:
  5485   000078  A69E               	btfss	158,3,c	;volatile
  5486   00007A  EF41  F000         	goto	i2u214_41
  5487   00007E  EF43  F000         	goto	i2u214_40
  5488   000082                     i2u214_41:
  5489   000082  EF45  F000         	goto	i2l703
  5490   000086                     i2u214_40:
  5491   000086  EF27  F000         	goto	i2l4114
  5492   00008A                     i2l703:
  5493   00008A  C010  FFF5         	movff	??_INTERRUPT_InterruptManagerHigh+9,tablat
  5494   00008E  C00F  FFF8         	movff	??_INTERRUPT_InterruptManagerHigh+8,tblptru
  5495   000092  C00E  FFF7         	movff	??_INTERRUPT_InterruptManagerHigh+7,tblptrh
  5496   000096  C00D  FFF6         	movff	??_INTERRUPT_InterruptManagerHigh+6,tblptrl
  5497   00009A  C00C  FFF4         	movff	??_INTERRUPT_InterruptManagerHigh+5,prodh
  5498   00009E  C00B  FFF3         	movff	??_INTERRUPT_InterruptManagerHigh+4,prodl
  5499   0000A2  C00A  FFDA         	movff	??_INTERRUPT_InterruptManagerHigh+3,fsr2h
  5500   0000A6  C009  FFD9         	movff	??_INTERRUPT_InterruptManagerHigh+2,fsr2l
  5501   0000AA  C008  FFFB         	movff	??_INTERRUPT_InterruptManagerHigh+1,pclatu
  5502   0000AE  C007  FFFA         	movff	??_INTERRUPT_InterruptManagerHigh,pclath
  5503   0000B2  925D               	bcf	int$flags,1,c	;clear compiler interrupt flag (level 2)
  5504   0000B4  0011               	retfie		f
  5505   0000B6                     __end_of_INTERRUPT_InterruptManagerHigh:
  5506                           	callstack 0
  5507                           
  5508 ;; *************** function _I2C_MasterIsr *****************
  5509 ;; Defined at:
  5510 ;;		line 318 in file "mcc_generated_files/i2c_client/src/i2c_master.c"
  5511 ;; Parameters:    Size  Location     Type
  5512 ;;		None
  5513 ;; Auto vars:     Size  Location     Type
  5514 ;;		None
  5515 ;; Return value:  Size  Location     Type
  5516 ;;                  1    wreg      void 
  5517 ;; Registers used:
  5518 ;;		wreg, fsr2l, fsr2h, status,2, status,0, pcl, pclath, pclatu, tosl, tblptrl, tblptrh, tblptru, prodl, prodh, cstack
  5519 ;; Tracked objects:
  5520 ;;		On entry : 0/0
  5521 ;;		On exit  : 0/0
  5522 ;;		Unchanged: 0/0
  5523 ;; Data sizes:     COMRAM   BANK0   BANK1   BANK2   BANK3   BANK4   BANK5   BANK6   BANK7   BANK8   BANK9  BANK10  BANK1
      +1  BANK12  BANK13  BANK14  BANK15
  5524 ;;      Params:         0       0       0       0       0       0       0       0       0       0       0       0       
      +0       0       0       0       0
  5525 ;;      Locals:         0       0       0       0       0       0       0       0       0       0       0       0       
      +0       0       0       0       0
  5526 ;;      Temps:          0       0       0       0       0       0       0       0       0       0       0       0       
      +0       0       0       0       0
  5527 ;;      Totals:         0       0       0       0       0       0       0       0       0       0       0       0       
      +0       0       0       0       0
  5528 ;;Total ram usage:        0 bytes
  5529 ;; Hardware stack levels used: 1
  5530 ;; Hardware stack levels required when called: 5
  5531 ;; This function calls:
  5532 ;;		_I2C_MasterFsm
  5533 ;; This function is called by:
  5534 ;;		_I2C_Open
  5535 ;;		_INTERRUPT_InterruptManagerHigh
  5536 ;; This function uses a non-reentrant model
  5537 ;;
  5538                           
  5539                           	psect	text58
  5540   002378                     __ptext58:
  5541                           	callstack 0
  5542   002378                     _I2C_MasterIsr:
  5543                           	callstack 17
  5544   002378                     
  5545                           ;mcc_generated_files/i2c_client/src/i2c_master.c: 320:     I2C_MasterFsm();
  5546   002378  EC2A  F00D         	call	_I2C_MasterFsm	;wreg free
  5547   00237C  0012               	return		;funcret
  5548   00237E                     __end_of_I2C_MasterIsr:
  5549                           	callstack 0
  5550                           
  5551 ;; *************** function _I2C_MasterFsm *****************
  5552 ;; Defined at:
  5553 ;;		line 323 in file "mcc_generated_files/i2c_client/src/i2c_master.c"
  5554 ;; Parameters:    Size  Location     Type
  5555 ;;		None
  5556 ;; Auto vars:     Size  Location     Type
  5557 ;;		None
  5558 ;; Return value:  Size  Location     Type
  5559 ;;                  1    wreg      void 
  5560 ;; Registers used:
  5561 ;;		wreg, fsr2l, fsr2h, status,2, status,0, pcl, pclath, pclatu, tosl, tblptrl, tblptrh, tblptru, prodl, prodh, cstack
  5562 ;; Tracked objects:
  5563 ;;		On entry : 0/0
  5564 ;;		On exit  : 0/0
  5565 ;;		Unchanged: 0/0
  5566 ;; Data sizes:     COMRAM   BANK0   BANK1   BANK2   BANK3   BANK4   BANK5   BANK6   BANK7   BANK8   BANK9  BANK10  BANK1
      +1  BANK12  BANK13  BANK14  BANK15
  5567 ;;      Params:         0       0       0       0       0       0       0       0       0       0       0       0       
      +0       0       0       0       0
  5568 ;;      Locals:         0       0       0       0       0       0       0       0       0       0       0       0       
      +0       0       0       0       0
  5569 ;;      Temps:          3       0       0       0       0       0       0       0       0       0       0       0       
      +0       0       0       0       0
  5570 ;;      Totals:         3       0       0       0       0       0       0       0       0       0       0       0       
      +0       0       0       0       0
  5571 ;;Total ram usage:        3 bytes
  5572 ;; Hardware stack levels used: 1
  5573 ;; Hardware stack levels required when called: 4
  5574 ;; This function calls:
  5575 ;;		_I2C_DO_ADDRESS_NACK
  5576 ;;		_I2C_DO_IDLE
  5577 ;;		_I2C_DO_RCEN
  5578 ;;		_I2C_DO_RESET
  5579 ;;		_I2C_DO_RX
  5580 ;;		_I2C_DO_RX_ACK
  5581 ;;		_I2C_DO_RX_NACK_RESTART
  5582 ;;		_I2C_DO_RX_NACK_STOP
  5583 ;;		_I2C_DO_SEND_ADR_READ
  5584 ;;		_I2C_DO_SEND_ADR_WRITE
  5585 ;;		_I2C_DO_SEND_RESTART
  5586 ;;		_I2C_DO_SEND_RESTART_READ
  5587 ;;		_I2C_DO_SEND_RESTART_WRITE
  5588 ;;		_I2C_DO_SEND_STOP
  5589 ;;		_I2C_DO_TX
  5590 ;;		_I2C_DO_TX_EMPTY
  5591 ;;		_I2C_MasterIsNack
  5592 ;;		i2_I2C_MasterClearIrq
  5593 ;; This function is called by:
  5594 ;;		_I2C_MasterIsr
  5595 ;; This function uses a non-reentrant model
  5596 ;;
  5597                           
  5598                           	psect	text59
  5599   001A54                     __ptext59:
  5600                           	callstack 0
  5601   001A54                     _I2C_MasterFsm:
  5602                           	callstack 17
  5603   001A54                     
  5604                           ;mcc_generated_files/i2c_client/src/i2c_master.c: 325:     I2C_MasterClearIrq();
  5605   001A54  ECD3  F011         	call	i2_I2C_MasterClearIrq	;wreg free
  5606   001A58                     
  5607                           ;mcc_generated_files/i2c_client/src/i2c_master.c: 327:     if(I2C_Status.addressNackChec
      +                          k && I2C_MasterIsNack())
  5608   001A58  0100               	movlb	0	; () banked
  5609   001A5A  A183               	btfss	(_I2C_Status+35)& (0+255),0,b
  5610   001A5C  EF32  F00D         	goto	i2u179_41
  5611   001A60  EF34  F00D         	goto	i2u179_40
  5612   001A64                     i2u179_41:
  5613   001A64  EF41  F00D         	goto	i2l3812
  5614   001A68                     i2u179_40:
  5615   001A68                     
  5616                           ; BSR set to: 0
  5617   001A68  EC17  F011         	call	_I2C_MasterIsNack	;wreg free
  5618   001A6C  0900               	iorlw	0
  5619   001A6E  B4D8               	btfsc	status,2,c
  5620   001A70  EF3C  F00D         	goto	i2u180_41
  5621   001A74  EF3E  F00D         	goto	i2u180_40
  5622   001A78                     i2u180_41:
  5623   001A78  EF41  F00D         	goto	i2l3812
  5624   001A7C                     i2u180_40:
  5625   001A7C                     
  5626                           ;mcc_generated_files/i2c_client/src/i2c_master.c: 328:     {;mcc_generated_files/i2c_cli
      +                          ent/src/i2c_master.c: 329:         I2C_Status.state = I2C_ADDRESS_NACK;
  5627   001A7C  0E0F               	movlw	15
  5628   001A7E  0100               	movlb	0	; () banked
  5629   001A80  6F81               	movwf	(_I2C_Status+33)& (0+255),b
  5630   001A82                     i2l3812:
  5631                           
  5632                           ;mcc_generated_files/i2c_client/src/i2c_master.c: 331:     I2C_Status.state = i2c_fsmSta
      +                          teTable[I2C_Status.state]();
  5633   001A82  0100               	movlb	0	; () banked
  5634   001A84  5181               	movf	(_I2C_Status+33)& (0+255),w,b
  5635   001A86  0D02               	mullw	2
  5636   001A88  50F3               	movf	243,w,c
  5637   001A8A  0F31               	addlw	low _i2c_fsmStateTable
  5638   001A8C  6E04               	movwf	??_I2C_MasterFsm^0,c
  5639   001A8E  C004  FFF6         	movff	??_I2C_MasterFsm,tblptrl
  5640   001A92                     	if	1	;There is more than 1 active tblptr byte
  5641   001A92  0E10               	movlw	high __smallconst
  5642   001A94  6EF7               	movwf	tblptrh,c
  5643   001A96                     	endif
  5644   001A96                     	if	1	;Program memory is < 0x10000, tblptru is always zero
  5645   001A96  6AF8               	clrf	tblptru,c
  5646   001A98                     	endif
  5647   001A98                     	if	0	;tblptru may be non-zero
  5648   001A98                     	endif
  5649   001A98  0009               	tblrd		*+
  5650   001A9A  CFF5 F005          	movff	tablat,??_I2C_MasterFsm+1
  5651   001A9E  0009               	tblrd		*+
  5652   001AA0  CFF5 F006          	movff	tablat,??_I2C_MasterFsm+2
  5653   001AA4  D802               	call	i2u181_48
  5654   001AA6  EF5E  F00D         	goto	i2u181_49
  5655   001AAA                     i2u181_48:
  5656   001AAA  0005               	push	
  5657   001AAC  6EFA               	movwf	pclath,c
  5658   001AAE  5005               	movf	(??_I2C_MasterFsm+1)^0,w,c
  5659   001AB0  6EFD               	movwf	tosl,c
  5660   001AB2  5006               	movf	(??_I2C_MasterFsm+2)^0,w,c
  5661   001AB4  6EFE               	movwf	tosh,c
  5662   001AB6  6AFF               	clrf	tosu,c
  5663   001AB8  50FA               	movf	pclath,w,c
  5664   001ABA  0012               	return		;indir
  5665   001ABC                     i2u181_49:
  5666   001ABC  0100               	movlb	0	; () banked
  5667   001ABE  6F81               	movwf	(_I2C_Status+33)& (0+255),b
  5668   001AC0                     
  5669                           ; BSR set to: 0
  5670   001AC0  0012               	return		;funcret
  5671   001AC2                     __end_of_I2C_MasterFsm:
  5672                           	callstack 0
  5673                           
  5674 ;; *************** function i2_I2C_MasterClearIrq *****************
  5675 ;; Defined at:
  5676 ;;		line 642 in file "mcc_generated_files/i2c_client/src/i2c_master.c"
  5677 ;; Parameters:    Size  Location     Type
  5678 ;;		None
  5679 ;; Auto vars:     Size  Location     Type
  5680 ;;		None
  5681 ;; Return value:  Size  Location     Type
  5682 ;;                  1    wreg      void 
  5683 ;; Registers used:
  5684 ;;		None
  5685 ;; Tracked objects:
  5686 ;;		On entry : 0/0
  5687 ;;		On exit  : 0/0
  5688 ;;		Unchanged: 0/0
  5689 ;; Data sizes:     COMRAM   BANK0   BANK1   BANK2   BANK3   BANK4   BANK5   BANK6   BANK7   BANK8   BANK9  BANK10  BANK1
      +1  BANK12  BANK13  BANK14  BANK15
  5690 ;;      Params:         0       0       0       0       0       0       0       0       0       0       0       0       
      +0       0       0       0       0
  5691 ;;      Locals:         0       0       0       0       0       0       0       0       0       0       0       0       
      +0       0       0       0       0
  5692 ;;      Temps:          0       0       0       0       0       0       0       0       0       0       0       0       
      +0       0       0       0       0
  5693 ;;      Totals:         0       0       0       0       0       0       0       0       0       0       0       0       
      +0       0       0       0       0
  5694 ;;Total ram usage:        0 bytes
  5695 ;; Hardware stack levels used: 1
  5696 ;; This function calls:
  5697 ;;		Nothing
  5698 ;; This function is called by:
  5699 ;;		_I2C_MasterFsm
  5700 ;; This function uses a non-reentrant model
  5701 ;;
  5702                           
  5703                           	psect	text60
  5704   0023A6                     __ptext60:
  5705                           	callstack 0
  5706   0023A6                     i2_I2C_MasterClearIrq:
  5707                           	callstack 20
  5708   0023A6                     
  5709                           ;mcc_generated_files/i2c_client/src/i2c_master.c: 644:     PIR1bits.SSPIF = 0;
  5710   0023A6  969E               	bcf	158,3,c	;volatile
  5711   0023A8  0012               	return		;funcret
  5712   0023AA                     __end_ofi2_I2C_MasterClearIrq:
  5713                           	callstack 0
  5714                           
  5715 ;; *************** function _I2C_DO_ADDRESS_NACK *****************
  5716 ;; Defined at:
  5717 ;;		line 501 in file "mcc_generated_files/i2c_client/src/i2c_master.c"
  5718 ;; Parameters:    Size  Location     Type
  5719 ;;		None
  5720 ;; Auto vars:     Size  Location     Type
  5721 ;;		None
  5722 ;; Return value:  Size  Location     Type
  5723 ;;                  1    wreg      enum E3134
  5724 ;; Registers used:
  5725 ;;		wreg, fsr2l, fsr2h, status,2, status,0, pcl, pclath, pclatu, tosl, prodl, prodh, cstack
  5726 ;; Tracked objects:
  5727 ;;		On entry : 0/0
  5728 ;;		On exit  : 0/0
  5729 ;;		Unchanged: 0/0
  5730 ;; Data sizes:     COMRAM   BANK0   BANK1   BANK2   BANK3   BANK4   BANK5   BANK6   BANK7   BANK8   BANK9  BANK10  BANK1
      +1  BANK12  BANK13  BANK14  BANK15
  5731 ;;      Params:         0       0       0       0       0       0       0       0       0       0       0       0       
      +0       0       0       0       0
  5732 ;;      Locals:         0       0       0       0       0       0       0       0       0       0       0       0       
      +0       0       0       0       0
  5733 ;;      Temps:          2       0       0       0       0       0       0       0       0       0       0       0       
      +0       0       0       0       0
  5734 ;;      Totals:         2       0       0       0       0       0       0       0       0       0       0       0       
      +0       0       0       0       0
  5735 ;;Total ram usage:        2 bytes
  5736 ;; Hardware stack levels used: 1
  5737 ;; Hardware stack levels required when called: 3
  5738 ;; This function calls:
  5739 ;;		NULL
  5740 ;;		_I2C_CallbackReturnReset
  5741 ;;		_I2C_CallbackReturnStop
  5742 ;;		_I2C_DO_SEND_RESTART
  5743 ;;		_I2C_DO_SEND_STOP
  5744 ;;		_rd1RegCompleteHandler
  5745 ;;		_rd2RegCompleteHandler
  5746 ;;		_rdBlkRegCompleteHandler
  5747 ;;		_wr1RegCompleteHandler
  5748 ;;		_wr2RegCompleteHandler
  5749 ;; This function is called by:
  5750 ;;		_I2C_MasterFsm
  5751 ;; This function uses a non-reentrant model
  5752 ;;
  5753                           
  5754                           	psect	text61
  5755   001BFC                     __ptext61:
  5756                           	callstack 0
  5757   001BFC                     _I2C_DO_ADDRESS_NACK:
  5758                           	callstack 17
  5759   001BFC                     
  5760                           ;mcc_generated_files/i2c_client/src/i2c_master.c: 503:     I2C_Status.addressNackCheck =
      +                           0;
  5761   001BFC  0100               	movlb	0	; () banked
  5762   001BFE  9183               	bcf	(_I2C_Status+35)& (0+255),0,b
  5763   001C00                     
  5764                           ; BSR set to: 0
  5765                           ;mcc_generated_files/i2c_client/src/i2c_master.c: 504:     I2C_Status.error = I2C_FAIL;
  5766   001C00  0E02               	movlw	2
  5767   001C02  6F82               	movwf	(_I2C_Status+34)& (0+255),b
  5768                           
  5769                           ;mcc_generated_files/i2c_client/src/i2c_master.c: 505:     switch(I2C_Status.callbackTab
      +                          le[I2C_ADDR_NACK](I2C_Status.callbackPayload[I2C_ADDR_NACK]))
  5770   001C04  EF0C  F00E         	goto	i2l3698
  5771   001C08                     i2l3688:
  5772                           
  5773                           ;mcc_generated_files/i2c_client/src/i2c_master.c: 509:             return I2C_DO_SEND_RE
      +                          START();
  5774   001C08  ECA9  F011         	call	_I2C_DO_SEND_RESTART	;wreg free
  5775   001C0C  EF30  F00E         	goto	i2l308
  5776   001C10                     i2l3692:
  5777                           
  5778                           ;mcc_generated_files/i2c_client/src/i2c_master.c: 511:             return I2C_DO_SEND_ST
      +                          OP();
  5779   001C10  ECA5  F011         	call	_I2C_DO_SEND_STOP	;wreg free
  5780   001C14  EF30  F00E         	goto	i2l308
  5781   001C18                     i2l3698:
  5782                           
  5783                           ; BSR set to: 0
  5784   001C18  C070  F00A         	movff	_I2C_Status+16,rdBlkRegCompleteHandler@ptr
  5785   001C1C  C071  F00B         	movff	_I2C_Status+17,rdBlkRegCompleteHandler@ptr+1
  5786   001C20  D802               	call	i2u171_48
  5787   001C22  EF1C  F00E         	goto	i2u171_49
  5788   001C26                     i2u171_48:
  5789   001C26  0005               	push	
  5790   001C28  6EFA               	movwf	pclath,c
  5791   001C2A  5164               	movf	(_I2C_Status+4)& (0+255),w,b
  5792   001C2C  6EFD               	movwf	tosl,c
  5793   001C2E  5165               	movf	(_I2C_Status+5)& (0+255),w,b
  5794   001C30  6EFE               	movwf	tosh,c
  5795   001C32  6AFF               	clrf	tosu,c
  5796   001C34  50FA               	movf	pclath,w,c
  5797   001C36  0012               	return		;indir
  5798   001C38                     i2u171_49:
  5799   001C38  6E01               	movwf	??_I2C_DO_ADDRESS_NACK^0,c
  5800   001C3A  6A02               	clrf	(??_I2C_DO_ADDRESS_NACK+1)^0,c
  5801                           
  5802                           ; Switch on 2 bytes has been partitioned into a top level switch of size 1, and 1 sub-sw
      +                          itches
  5803                           ; Switch size 1, requested type "simple"
  5804                           ; Number of cases is 1, Range of values is 0 to 0
  5805                           ; switch strategies available:
  5806                           ; Name         Instructions Cycles
  5807                           ; simple_byte            4     3 (average)
  5808                           ;	Chosen strategy is simple_byte
  5809   001C3C  5002               	movf	(??_I2C_DO_ADDRESS_NACK+1)^0,w,c
  5810   001C3E  0A00               	xorlw	0	; case 0
  5811   001C40  B4D8               	btfsc	status,2,c
  5812   001C42  EF25  F00E         	goto	i2l4246
  5813   001C46  EF08  F00E         	goto	i2l3692
  5814   001C4A                     i2l4246:
  5815                           
  5816                           ; Switch size 1, requested type "simple"
  5817                           ; Number of cases is 2, Range of values is 2 to 3
  5818                           ; switch strategies available:
  5819                           ; Name         Instructions Cycles
  5820                           ; simple_byte            7     4 (average)
  5821                           ;	Chosen strategy is simple_byte
  5822   001C4A  5001               	movf	??_I2C_DO_ADDRESS_NACK^0,w,c
  5823   001C4C  0A02               	xorlw	2	; case 2
  5824   001C4E  B4D8               	btfsc	status,2,c
  5825   001C50  EF04  F00E         	goto	i2l3688
  5826   001C54  0A01               	xorlw	1	; case 3
  5827   001C56  B4D8               	btfsc	status,2,c
  5828   001C58  EF04  F00E         	goto	i2l3688
  5829   001C5C  EF08  F00E         	goto	i2l3692
  5830   001C60                     i2l308:
  5831   001C60  0012               	return		;funcret
  5832   001C62                     __end_of_I2C_DO_ADDRESS_NACK:
  5833                           	callstack 0
  5834                           
  5835 ;; *************** function _I2C_DO_RESET *****************
  5836 ;; Defined at:
  5837 ;;		line 495 in file "mcc_generated_files/i2c_client/src/i2c_master.c"
  5838 ;; Parameters:    Size  Location     Type
  5839 ;;		None
  5840 ;; Auto vars:     Size  Location     Type
  5841 ;;		None
  5842 ;; Return value:  Size  Location     Type
  5843 ;;                  1    wreg      enum E3134
  5844 ;; Registers used:
  5845 ;;		wreg, status,2
  5846 ;; Tracked objects:
  5847 ;;		On entry : 0/0
  5848 ;;		On exit  : 0/0
  5849 ;;		Unchanged: 0/0
  5850 ;; Data sizes:     COMRAM   BANK0   BANK1   BANK2   BANK3   BANK4   BANK5   BANK6   BANK7   BANK8   BANK9  BANK10  BANK1
      +1  BANK12  BANK13  BANK14  BANK15
  5851 ;;      Params:         0       0       0       0       0       0       0       0       0       0       0       0       
      +0       0       0       0       0
  5852 ;;      Locals:         0       0       0       0       0       0       0       0       0       0       0       0       
      +0       0       0       0       0
  5853 ;;      Temps:          0       0       0       0       0       0       0       0       0       0       0       0       
      +0       0       0       0       0
  5854 ;;      Totals:         0       0       0       0       0       0       0       0       0       0       0       0       
      +0       0       0       0       0
  5855 ;;Total ram usage:        0 bytes
  5856 ;; Hardware stack levels used: 1
  5857 ;; This function calls:
  5858 ;;		Nothing
  5859 ;; This function is called by:
  5860 ;;		_I2C_MasterFsm
  5861 ;; This function uses a non-reentrant model
  5862 ;;
  5863                           
  5864                           	psect	text62
  5865   0022CC                     __ptext62:
  5866                           	callstack 0
  5867   0022CC                     _I2C_DO_RESET:
  5868                           	callstack 20
  5869   0022CC                     
  5870                           ;mcc_generated_files/i2c_client/src/i2c_master.c: 497:     I2C_Status.busy = 0;
  5871   0022CC  0100               	movlb	0	; () banked
  5872   0022CE  9383               	bcf	(_I2C_Status+35)& (0+255),1,b
  5873   0022D0                     
  5874                           ; BSR set to: 0
  5875                           ;mcc_generated_files/i2c_client/src/i2c_master.c: 498:     I2C_Status.error = I2C_NOERR;
  5876   0022D0  0E00               	movlw	0
  5877   0022D2  6F82               	movwf	(_I2C_Status+34)& (0+255),b
  5878   0022D4                     
  5879                           ; BSR set to: 0
  5880                           ;mcc_generated_files/i2c_client/src/i2c_master.c: 499:     return I2C_RESET;
  5881   0022D4  0E0E               	movlw	14
  5882   0022D6                     
  5883                           ; BSR set to: 0
  5884   0022D6  0012               	return		;funcret
  5885   0022D8                     __end_of_I2C_DO_RESET:
  5886                           	callstack 0
  5887                           
  5888 ;; *************** function _I2C_DO_RX_NACK_RESTART *****************
  5889 ;; Defined at:
  5890 ;;		line 489 in file "mcc_generated_files/i2c_client/src/i2c_master.c"
  5891 ;; Parameters:    Size  Location     Type
  5892 ;;		None
  5893 ;; Auto vars:     Size  Location     Type
  5894 ;;		None
  5895 ;; Return value:  Size  Location     Type
  5896 ;;                  1    wreg      enum E3134
  5897 ;; Registers used:
  5898 ;;		wreg, cstack
  5899 ;; Tracked objects:
  5900 ;;		On entry : 0/0
  5901 ;;		On exit  : 0/0
  5902 ;;		Unchanged: 0/0
  5903 ;; Data sizes:     COMRAM   BANK0   BANK1   BANK2   BANK3   BANK4   BANK5   BANK6   BANK7   BANK8   BANK9  BANK10  BANK1
      +1  BANK12  BANK13  BANK14  BANK15
  5904 ;;      Params:         0       0       0       0       0       0       0       0       0       0       0       0       
      +0       0       0       0       0
  5905 ;;      Locals:         0       0       0       0       0       0       0       0       0       0       0       0       
      +0       0       0       0       0
  5906 ;;      Temps:          0       0       0       0       0       0       0       0       0       0       0       0       
      +0       0       0       0       0
  5907 ;;      Totals:         0       0       0       0       0       0       0       0       0       0       0       0       
      +0       0       0       0       0
  5908 ;;Total ram usage:        0 bytes
  5909 ;; Hardware stack levels used: 1
  5910 ;; Hardware stack levels required when called: 1
  5911 ;; This function calls:
  5912 ;;		_I2C_MasterSendNack
  5913 ;; This function is called by:
  5914 ;;		_I2C_DO_RX
  5915 ;;		_I2C_MasterFsm
  5916 ;; This function uses a non-reentrant model
  5917 ;;
  5918                           
  5919                           	psect	text63
  5920   002332                     __ptext63:
  5921                           	callstack 0
  5922   002332                     _I2C_DO_RX_NACK_RESTART:
  5923                           	callstack 19
  5924   002332                     
  5925                           ;mcc_generated_files/i2c_client/src/i2c_master.c: 491:     I2C_MasterSendNack();
  5926   002332  ECC2  F011         	call	_I2C_MasterSendNack	;wreg free
  5927   002336                     
  5928                           ;mcc_generated_files/i2c_client/src/i2c_master.c: 492:     return I2C_SEND_RESTART;
  5929   002336  0E09               	movlw	9
  5930   002338  0012               	return		;funcret
  5931   00233A                     __end_of_I2C_DO_RX_NACK_RESTART:
  5932                           	callstack 0
  5933                           
  5934 ;; *************** function _I2C_DO_RX_NACK_STOP *****************
  5935 ;; Defined at:
  5936 ;;		line 483 in file "mcc_generated_files/i2c_client/src/i2c_master.c"
  5937 ;; Parameters:    Size  Location     Type
  5938 ;;		None
  5939 ;; Auto vars:     Size  Location     Type
  5940 ;;		None
  5941 ;; Return value:  Size  Location     Type
  5942 ;;                  1    wreg      enum E3134
  5943 ;; Registers used:
  5944 ;;		wreg, cstack
  5945 ;; Tracked objects:
  5946 ;;		On entry : 0/0
  5947 ;;		On exit  : 0/0
  5948 ;;		Unchanged: 0/0
  5949 ;; Data sizes:     COMRAM   BANK0   BANK1   BANK2   BANK3   BANK4   BANK5   BANK6   BANK7   BANK8   BANK9  BANK10  BANK1
      +1  BANK12  BANK13  BANK14  BANK15
  5950 ;;      Params:         0       0       0       0       0       0       0       0       0       0       0       0       
      +0       0       0       0       0
  5951 ;;      Locals:         0       0       0       0       0       0       0       0       0       0       0       0       
      +0       0       0       0       0
  5952 ;;      Temps:          0       0       0       0       0       0       0       0       0       0       0       0       
      +0       0       0       0       0
  5953 ;;      Totals:         0       0       0       0       0       0       0       0       0       0       0       0       
      +0       0       0       0       0
  5954 ;;Total ram usage:        0 bytes
  5955 ;; Hardware stack levels used: 1
  5956 ;; Hardware stack levels required when called: 1
  5957 ;; This function calls:
  5958 ;;		_I2C_MasterSendNack
  5959 ;; This function is called by:
  5960 ;;		_I2C_DO_RX
  5961 ;;		_I2C_MasterFsm
  5962 ;; This function uses a non-reentrant model
  5963 ;;
  5964                           
  5965                           	psect	text64
  5966   00233A                     __ptext64:
  5967                           	callstack 0
  5968   00233A                     _I2C_DO_RX_NACK_STOP:
  5969                           	callstack 19
  5970   00233A                     
  5971                           ;mcc_generated_files/i2c_client/src/i2c_master.c: 485:     I2C_MasterSendNack();
  5972   00233A  ECC2  F011         	call	_I2C_MasterSendNack	;wreg free
  5973   00233E                     
  5974                           ;mcc_generated_files/i2c_client/src/i2c_master.c: 486:     return I2C_SEND_STOP;
  5975   00233E  0E0A               	movlw	10
  5976   002340  0012               	return		;funcret
  5977   002342                     __end_of_I2C_DO_RX_NACK_STOP:
  5978                           	callstack 0
  5979                           
  5980 ;; *************** function _I2C_DO_RX_ACK *****************
  5981 ;; Defined at:
  5982 ;;		line 476 in file "mcc_generated_files/i2c_client/src/i2c_master.c"
  5983 ;; Parameters:    Size  Location     Type
  5984 ;;		None
  5985 ;; Auto vars:     Size  Location     Type
  5986 ;;		None
  5987 ;; Return value:  Size  Location     Type
  5988 ;;                  1    wreg      enum E3134
  5989 ;; Registers used:
  5990 ;;		wreg, cstack
  5991 ;; Tracked objects:
  5992 ;;		On entry : 0/0
  5993 ;;		On exit  : 0/0
  5994 ;;		Unchanged: 0/0
  5995 ;; Data sizes:     COMRAM   BANK0   BANK1   BANK2   BANK3   BANK4   BANK5   BANK6   BANK7   BANK8   BANK9  BANK10  BANK1
      +1  BANK12  BANK13  BANK14  BANK15
  5996 ;;      Params:         0       0       0       0       0       0       0       0       0       0       0       0       
      +0       0       0       0       0
  5997 ;;      Locals:         0       0       0       0       0       0       0       0       0       0       0       0       
      +0       0       0       0       0
  5998 ;;      Temps:          0       0       0       0       0       0       0       0       0       0       0       0       
      +0       0       0       0       0
  5999 ;;      Totals:         0       0       0       0       0       0       0       0       0       0       0       0       
      +0       0       0       0       0
  6000 ;;Total ram usage:        0 bytes
  6001 ;; Hardware stack levels used: 1
  6002 ;; Hardware stack levels required when called: 1
  6003 ;; This function calls:
  6004 ;;		_I2C_MasterSendAck
  6005 ;; This function is called by:
  6006 ;;		_I2C_MasterFsm
  6007 ;; This function uses a non-reentrant model
  6008 ;;
  6009                           
  6010                           	psect	text65
  6011   002342                     __ptext65:
  6012                           	callstack 0
  6013   002342                     _I2C_DO_RX_ACK:
  6014                           	callstack 19
  6015   002342                     
  6016                           ;mcc_generated_files/i2c_client/src/i2c_master.c: 478:     I2C_MasterSendAck();
  6017   002342  ECBF  F011         	call	_I2C_MasterSendAck	;wreg free
  6018   002346                     
  6019                           ;mcc_generated_files/i2c_client/src/i2c_master.c: 479:     return I2C_RCEN;
  6020   002346  0E05               	movlw	5
  6021   002348  0012               	return		;funcret
  6022   00234A                     __end_of_I2C_DO_RX_ACK:
  6023                           	callstack 0
  6024                           
  6025 ;; *************** function _I2C_DO_SEND_STOP *****************
  6026 ;; Defined at:
  6027 ;;		line 470 in file "mcc_generated_files/i2c_client/src/i2c_master.c"
  6028 ;; Parameters:    Size  Location     Type
  6029 ;;		None
  6030 ;; Auto vars:     Size  Location     Type
  6031 ;;		None
  6032 ;; Return value:  Size  Location     Type
  6033 ;;                  1    wreg      enum E3134
  6034 ;; Registers used:
  6035 ;;		wreg, cstack
  6036 ;; Tracked objects:
  6037 ;;		On entry : 0/0
  6038 ;;		On exit  : 0/0
  6039 ;;		Unchanged: 0/0
  6040 ;; Data sizes:     COMRAM   BANK0   BANK1   BANK2   BANK3   BANK4   BANK5   BANK6   BANK7   BANK8   BANK9  BANK10  BANK1
      +1  BANK12  BANK13  BANK14  BANK15
  6041 ;;      Params:         0       0       0       0       0       0       0       0       0       0       0       0       
      +0       0       0       0       0
  6042 ;;      Locals:         0       0       0       0       0       0       0       0       0       0       0       0       
      +0       0       0       0       0
  6043 ;;      Temps:          0       0       0       0       0       0       0       0       0       0       0       0       
      +0       0       0       0       0
  6044 ;;      Totals:         0       0       0       0       0       0       0       0       0       0       0       0       
      +0       0       0       0       0
  6045 ;;Total ram usage:        0 bytes
  6046 ;; Hardware stack levels used: 1
  6047 ;; Hardware stack levels required when called: 1
  6048 ;; This function calls:
  6049 ;;		_I2C_MasterStop
  6050 ;; This function is called by:
  6051 ;;		_I2C_DO_TX
  6052 ;;		_I2C_DO_TX_EMPTY
  6053 ;;		_I2C_DO_ADDRESS_NACK
  6054 ;;		_I2C_MasterFsm
  6055 ;; This function uses a non-reentrant model
  6056 ;;
  6057                           
  6058                           	psect	text66
  6059   00234A                     __ptext66:
  6060                           	callstack 0
  6061   00234A                     _I2C_DO_SEND_STOP:
  6062                           	callstack 18
  6063   00234A                     
  6064                           ;mcc_generated_files/i2c_client/src/i2c_master.c: 472:     I2C_MasterStop();
  6065   00234A  ECDF  F011         	call	_I2C_MasterStop	;wreg free
  6066   00234E                     
  6067                           ;mcc_generated_files/i2c_client/src/i2c_master.c: 473:     return I2C_IDLE;
  6068   00234E  0E00               	movlw	0
  6069   002350  0012               	return		;funcret
  6070   002352                     __end_of_I2C_DO_SEND_STOP:
  6071                           	callstack 0
  6072                           
  6073 ;; *************** function _I2C_DO_SEND_RESTART *****************
  6074 ;; Defined at:
  6075 ;;		line 464 in file "mcc_generated_files/i2c_client/src/i2c_master.c"
  6076 ;; Parameters:    Size  Location     Type
  6077 ;;		None
  6078 ;; Auto vars:     Size  Location     Type
  6079 ;;		None
  6080 ;; Return value:  Size  Location     Type
  6081 ;;                  1    wreg      enum E3134
  6082 ;; Registers used:
  6083 ;;		wreg, cstack
  6084 ;; Tracked objects:
  6085 ;;		On entry : 0/0
  6086 ;;		On exit  : 0/0
  6087 ;;		Unchanged: 0/0
  6088 ;; Data sizes:     COMRAM   BANK0   BANK1   BANK2   BANK3   BANK4   BANK5   BANK6   BANK7   BANK8   BANK9  BANK10  BANK1
      +1  BANK12  BANK13  BANK14  BANK15
  6089 ;;      Params:         0       0       0       0       0       0       0       0       0       0       0       0       
      +0       0       0       0       0
  6090 ;;      Locals:         0       0       0       0       0       0       0       0       0       0       0       0       
      +0       0       0       0       0
  6091 ;;      Temps:          0       0       0       0       0       0       0       0       0       0       0       0       
      +0       0       0       0       0
  6092 ;;      Totals:         0       0       0       0       0       0       0       0       0       0       0       0       
      +0       0       0       0       0
  6093 ;;Total ram usage:        0 bytes
  6094 ;; Hardware stack levels used: 1
  6095 ;; Hardware stack levels required when called: 1
  6096 ;; This function calls:
  6097 ;;		_I2C_MasterEnableRestart
  6098 ;; This function is called by:
  6099 ;;		_I2C_DO_TX_EMPTY
  6100 ;;		_I2C_DO_ADDRESS_NACK
  6101 ;;		_I2C_MasterFsm
  6102 ;; This function uses a non-reentrant model
  6103 ;;
  6104                           
  6105                           	psect	text67
  6106   002352                     __ptext67:
  6107                           	callstack 0
  6108   002352                     _I2C_DO_SEND_RESTART:
  6109                           	callstack 18
  6110   002352                     
  6111                           ;mcc_generated_files/i2c_client/src/i2c_master.c: 466:     I2C_MasterEnableRestart();
  6112   002352  ECE1  F011         	call	_I2C_MasterEnableRestart	;wreg free
  6113   002356                     
  6114                           ;mcc_generated_files/i2c_client/src/i2c_master.c: 467:     return I2C_SEND_ADR_READ;
  6115   002356  0E01               	movlw	1
  6116   002358  0012               	return		;funcret
  6117   00235A                     __end_of_I2C_DO_SEND_RESTART:
  6118                           	callstack 0
  6119                           
  6120 ;; *************** function _I2C_DO_SEND_RESTART_WRITE *****************
  6121 ;; Defined at:
  6122 ;;		line 457 in file "mcc_generated_files/i2c_client/src/i2c_master.c"
  6123 ;; Parameters:    Size  Location     Type
  6124 ;;		None
  6125 ;; Auto vars:     Size  Location     Type
  6126 ;;		None
  6127 ;; Return value:  Size  Location     Type
  6128 ;;                  1    wreg      enum E3134
  6129 ;; Registers used:
  6130 ;;		wreg, cstack
  6131 ;; Tracked objects:
  6132 ;;		On entry : 0/0
  6133 ;;		On exit  : 0/0
  6134 ;;		Unchanged: 0/0
  6135 ;; Data sizes:     COMRAM   BANK0   BANK1   BANK2   BANK3   BANK4   BANK5   BANK6   BANK7   BANK8   BANK9  BANK10  BANK1
      +1  BANK12  BANK13  BANK14  BANK15
  6136 ;;      Params:         0       0       0       0       0       0       0       0       0       0       0       0       
      +0       0       0       0       0
  6137 ;;      Locals:         0       0       0       0       0       0       0       0       0       0       0       0       
      +0       0       0       0       0
  6138 ;;      Temps:          0       0       0       0       0       0       0       0       0       0       0       0       
      +0       0       0       0       0
  6139 ;;      Totals:         0       0       0       0       0       0       0       0       0       0       0       0       
      +0       0       0       0       0
  6140 ;;Total ram usage:        0 bytes
  6141 ;; Hardware stack levels used: 1
  6142 ;; Hardware stack levels required when called: 1
  6143 ;; This function calls:
  6144 ;;		_I2C_MasterEnableRestart
  6145 ;; This function is called by:
  6146 ;;		_I2C_DO_TX
  6147 ;;		_I2C_MasterFsm
  6148 ;; This function uses a non-reentrant model
  6149 ;;
  6150                           
  6151                           	psect	text68
  6152   00235A                     __ptext68:
  6153                           	callstack 0
  6154   00235A                     _I2C_DO_SEND_RESTART_WRITE:
  6155                           	callstack 18
  6156   00235A                     
  6157                           ;mcc_generated_files/i2c_client/src/i2c_master.c: 459:     I2C_MasterEnableRestart();
  6158   00235A  ECE1  F011         	call	_I2C_MasterEnableRestart	;wreg free
  6159   00235E                     
  6160                           ;mcc_generated_files/i2c_client/src/i2c_master.c: 460:     return I2C_SEND_ADR_WRITE;
  6161   00235E  0E02               	movlw	2
  6162   002360  0012               	return		;funcret
  6163   002362                     __end_of_I2C_DO_SEND_RESTART_WRITE:
  6164                           	callstack 0
  6165                           
  6166 ;; *************** function _I2C_DO_SEND_RESTART_READ *****************
  6167 ;; Defined at:
  6168 ;;		line 451 in file "mcc_generated_files/i2c_client/src/i2c_master.c"
  6169 ;; Parameters:    Size  Location     Type
  6170 ;;		None
  6171 ;; Auto vars:     Size  Location     Type
  6172 ;;		None
  6173 ;; Return value:  Size  Location     Type
  6174 ;;                  1    wreg      enum E3134
  6175 ;; Registers used:
  6176 ;;		wreg, cstack
  6177 ;; Tracked objects:
  6178 ;;		On entry : 0/0
  6179 ;;		On exit  : 0/0
  6180 ;;		Unchanged: 0/0
  6181 ;; Data sizes:     COMRAM   BANK0   BANK1   BANK2   BANK3   BANK4   BANK5   BANK6   BANK7   BANK8   BANK9  BANK10  BANK1
      +1  BANK12  BANK13  BANK14  BANK15
  6182 ;;      Params:         0       0       0       0       0       0       0       0       0       0       0       0       
      +0       0       0       0       0
  6183 ;;      Locals:         0       0       0       0       0       0       0       0       0       0       0       0       
      +0       0       0       0       0
  6184 ;;      Temps:          0       0       0       0       0       0       0       0       0       0       0       0       
      +0       0       0       0       0
  6185 ;;      Totals:         0       0       0       0       0       0       0       0       0       0       0       0       
      +0       0       0       0       0
  6186 ;;Total ram usage:        0 bytes
  6187 ;; Hardware stack levels used: 1
  6188 ;; Hardware stack levels required when called: 1
  6189 ;; This function calls:
  6190 ;;		_I2C_MasterEnableRestart
  6191 ;; This function is called by:
  6192 ;;		_I2C_DO_TX
  6193 ;;		_I2C_MasterFsm
  6194 ;; This function uses a non-reentrant model
  6195 ;;
  6196                           
  6197                           	psect	text69
  6198   002362                     __ptext69:
  6199                           	callstack 0
  6200   002362                     _I2C_DO_SEND_RESTART_READ:
  6201                           	callstack 18
  6202   002362                     
  6203                           ;mcc_generated_files/i2c_client/src/i2c_master.c: 453:     I2C_MasterEnableRestart();
  6204   002362  ECE1  F011         	call	_I2C_MasterEnableRestart	;wreg free
  6205   002366                     
  6206                           ;mcc_generated_files/i2c_client/src/i2c_master.c: 454:     return I2C_SEND_ADR_READ;
  6207   002366  0E01               	movlw	1
  6208   002368  0012               	return		;funcret
  6209   00236A                     __end_of_I2C_DO_SEND_RESTART_READ:
  6210                           	callstack 0
  6211                           
  6212 ;; *************** function _I2C_DO_RCEN *****************
  6213 ;; Defined at:
  6214 ;;		line 404 in file "mcc_generated_files/i2c_client/src/i2c_master.c"
  6215 ;; Parameters:    Size  Location     Type
  6216 ;;		None
  6217 ;; Auto vars:     Size  Location     Type
  6218 ;;		None
  6219 ;; Return value:  Size  Location     Type
  6220 ;;                  1    wreg      enum E3134
  6221 ;; Registers used:
  6222 ;;		wreg, cstack
  6223 ;; Tracked objects:
  6224 ;;		On entry : 0/0
  6225 ;;		On exit  : 0/0
  6226 ;;		Unchanged: 0/0
  6227 ;; Data sizes:     COMRAM   BANK0   BANK1   BANK2   BANK3   BANK4   BANK5   BANK6   BANK7   BANK8   BANK9  BANK10  BANK1
      +1  BANK12  BANK13  BANK14  BANK15
  6228 ;;      Params:         0       0       0       0       0       0       0       0       0       0       0       0       
      +0       0       0       0       0
  6229 ;;      Locals:         0       0       0       0       0       0       0       0       0       0       0       0       
      +0       0       0       0       0
  6230 ;;      Temps:          0       0       0       0       0       0       0       0       0       0       0       0       
      +0       0       0       0       0
  6231 ;;      Totals:         0       0       0       0       0       0       0       0       0       0       0       0       
      +0       0       0       0       0
  6232 ;;Total ram usage:        0 bytes
  6233 ;; Hardware stack levels used: 1
  6234 ;; Hardware stack levels required when called: 1
  6235 ;; This function calls:
  6236 ;;		_I2C_MasterStartRx
  6237 ;; This function is called by:
  6238 ;;		_I2C_MasterFsm
  6239 ;; This function uses a non-reentrant model
  6240 ;;
  6241                           
  6242                           	psect	text70
  6243   0022D8                     __ptext70:
  6244                           	callstack 0
  6245   0022D8                     _I2C_DO_RCEN:
  6246                           	callstack 19
  6247   0022D8                     
  6248                           ;mcc_generated_files/i2c_client/src/i2c_master.c: 406:     I2C_Status.addressNackCheck =
      +                           0;
  6249   0022D8  0100               	movlb	0	; () banked
  6250   0022DA  9183               	bcf	(_I2C_Status+35)& (0+255),0,b
  6251   0022DC                     
  6252                           ; BSR set to: 0
  6253                           ;mcc_generated_files/i2c_client/src/i2c_master.c: 407:     I2C_MasterStartRx();
  6254   0022DC  ECD9  F011         	call	_I2C_MasterStartRx	;wreg free
  6255   0022E0                     
  6256                           ;mcc_generated_files/i2c_client/src/i2c_master.c: 408:     return I2C_RX;
  6257   0022E0  0E04               	movlw	4
  6258   0022E2  0012               	return		;funcret
  6259   0022E4                     __end_of_I2C_DO_RCEN:
  6260                           	callstack 0
  6261                           
  6262 ;; *************** function _I2C_DO_RX *****************
  6263 ;; Defined at:
  6264 ;;		line 380 in file "mcc_generated_files/i2c_client/src/i2c_master.c"
  6265 ;; Parameters:    Size  Location     Type
  6266 ;;		None
  6267 ;; Auto vars:     Size  Location     Type
  6268 ;;		None
  6269 ;; Return value:  Size  Location     Type
  6270 ;;                  1    wreg      enum E3134
  6271 ;; Registers used:
  6272 ;;		wreg, fsr2l, fsr2h, status,2, status,0, pcl, pclath, pclatu, tosl, prodl, prodh, cstack
  6273 ;; Tracked objects:
  6274 ;;		On entry : 0/0
  6275 ;;		On exit  : 0/0
  6276 ;;		Unchanged: 0/0
  6277 ;; Data sizes:     COMRAM   BANK0   BANK1   BANK2   BANK3   BANK4   BANK5   BANK6   BANK7   BANK8   BANK9  BANK10  BANK1
      +1  BANK12  BANK13  BANK14  BANK15
  6278 ;;      Params:         0       0       0       0       0       0       0       0       0       0       0       0       
      +0       0       0       0       0
  6279 ;;      Locals:         0       0       0       0       0       0       0       0       0       0       0       0       
      +0       0       0       0       0
  6280 ;;      Temps:          2       0       0       0       0       0       0       0       0       0       0       0       
      +0       0       0       0       0
  6281 ;;      Totals:         2       0       0       0       0       0       0       0       0       0       0       0       
      +0       0       0       0       0
  6282 ;;Total ram usage:        2 bytes
  6283 ;; Hardware stack levels used: 1
  6284 ;; Hardware stack levels required when called: 3
  6285 ;; This function calls:
  6286 ;;		NULL
  6287 ;;		_I2C_CallbackReturnReset
  6288 ;;		_I2C_CallbackReturnStop
  6289 ;;		_I2C_DO_RX_NACK_RESTART
  6290 ;;		_I2C_DO_RX_NACK_STOP
  6291 ;;		_I2C_MasterGetRxData
  6292 ;;		_I2C_MasterSendAck
  6293 ;;		_rd1RegCompleteHandler
  6294 ;;		_rd2RegCompleteHandler
  6295 ;;		_rdBlkRegCompleteHandler
  6296 ;;		_wr1RegCompleteHandler
  6297 ;;		_wr2RegCompleteHandler
  6298 ;; This function is called by:
  6299 ;;		_I2C_MasterFsm
  6300 ;; This function uses a non-reentrant model
  6301 ;;
  6302                           
  6303                           	psect	text71
  6304   0017A6                     __ptext71:
  6305                           	callstack 0
  6306   0017A6                     _I2C_DO_RX:
  6307                           	callstack 17
  6308   0017A6                     
  6309                           ;mcc_generated_files/i2c_client/src/i2c_master.c: 382:     *I2C_Status.data_ptr++ = I2C_
      +                          MasterGetRxData();
  6310   0017A6  ECD7  F011         	call	_I2C_MasterGetRxData	;wreg free
  6311   0017AA  C07D  FFD9         	movff	_I2C_Status+29,fsr2l
  6312   0017AE  C07E  FFDA         	movff	_I2C_Status+30,fsr2h
  6313   0017B2  6EDF               	movwf	indf2,c
  6314   0017B4  0100               	movlb	0	; () banked
  6315   0017B6  4B7D               	infsnz	(_I2C_Status+29)& (0+255),f,b
  6316   0017B8  2B7E               	incf	(_I2C_Status+30)& (0+255),f,b
  6317   0017BA                     
  6318                           ; BSR set to: 0
  6319                           ;mcc_generated_files/i2c_client/src/i2c_master.c: 383:     if(--I2C_Status.data_length)
  6320   0017BA  077F               	decf	(_I2C_Status+31)& (0+255),f,b
  6321   0017BC  A0D8               	btfss	status,0,c
  6322   0017BE  0780               	decf	(_I2C_Status+32)& (0+255),f,b
  6323   0017C0  517F               	movf	(_I2C_Status+31)& (0+255),w,b
  6324   0017C2  1180               	iorwf	(_I2C_Status+32)& (0+255),w,b
  6325   0017C4  B4D8               	btfsc	status,2,c
  6326   0017C6  EFE7  F00B         	goto	i2u168_41
  6327   0017CA  EFE9  F00B         	goto	i2u168_40
  6328   0017CE                     i2u168_41:
  6329   0017CE  EFEE  F00B         	goto	i2l245
  6330   0017D2                     i2u168_40:
  6331   0017D2                     
  6332                           ; BSR set to: 0
  6333                           ;mcc_generated_files/i2c_client/src/i2c_master.c: 384:     {;mcc_generated_files/i2c_cli
      +                          ent/src/i2c_master.c: 385:         I2C_MasterSendAck();
  6334   0017D2  ECBF  F011         	call	_I2C_MasterSendAck	;wreg free
  6335   0017D6                     
  6336                           ;mcc_generated_files/i2c_client/src/i2c_master.c: 386:         return I2C_RCEN;
  6337   0017D6  0E05               	movlw	5
  6338   0017D8  EF25  F00C         	goto	i2l246
  6339   0017DC                     i2l245:
  6340                           
  6341                           ; BSR set to: 0
  6342                           ;mcc_generated_files/i2c_client/src/i2c_master.c: 389:     {;mcc_generated_files/i2c_cli
      +                          ent/src/i2c_master.c: 390:         I2C_Status.bufferFree = 1;
  6343   0017DC  8783               	bsf	(_I2C_Status+35)& (0+255),3,b
  6344                           
  6345                           ;mcc_generated_files/i2c_client/src/i2c_master.c: 391:         switch(I2C_Status.callbac
      +                          kTable[I2C_DATA_COMPLETE](I2C_Status.callbackPayload[I2C_DATA_COMPLETE]))
  6346   0017DE  EFF9  F00B         	goto	i2l3632
  6347   0017E2                     i2l3622:
  6348                           
  6349                           ;mcc_generated_files/i2c_client/src/i2c_master.c: 395:                 return I2C_DO_RX_
      +                          NACK_RESTART();
  6350   0017E2  EC99  F011         	call	_I2C_DO_RX_NACK_RESTART	;wreg free
  6351   0017E6  EF25  F00C         	goto	i2l246
  6352   0017EA                     i2l3626:
  6353                           
  6354                           ;mcc_generated_files/i2c_client/src/i2c_master.c: 399:                 return I2C_DO_RX_
      +                          NACK_STOP();
  6355   0017EA  EC9D  F011         	call	_I2C_DO_RX_NACK_STOP	;wreg free
  6356   0017EE  EF25  F00C         	goto	i2l246
  6357   0017F2                     i2l3632:
  6358                           
  6359                           ; BSR set to: 0
  6360   0017F2  C06C  F00A         	movff	_I2C_Status+12,rdBlkRegCompleteHandler@ptr
  6361   0017F6  C06D  F00B         	movff	_I2C_Status+13,rdBlkRegCompleteHandler@ptr+1
  6362   0017FA  D802               	call	i2u169_48
  6363   0017FC  EF09  F00C         	goto	i2u169_49
  6364   001800                     i2u169_48:
  6365   001800  0005               	push	
  6366   001802  6EFA               	movwf	pclath,c
  6367   001804  5160               	movf	_I2C_Status& (0+255),w,b
  6368   001806  6EFD               	movwf	tosl,c
  6369   001808  5161               	movf	(_I2C_Status+1)& (0+255),w,b
  6370   00180A  6EFE               	movwf	tosh,c
  6371   00180C  6AFF               	clrf	tosu,c
  6372   00180E  50FA               	movf	pclath,w,c
  6373   001810  0012               	return		;indir
  6374   001812                     i2u169_49:
  6375   001812  6E01               	movwf	??_I2C_DO_RX^0,c
  6376   001814  6A02               	clrf	(??_I2C_DO_RX+1)^0,c
  6377                           
  6378                           ; Switch on 2 bytes has been partitioned into a top level switch of size 1, and 1 sub-sw
      +                          itches
  6379                           ; Switch size 1, requested type "simple"
  6380                           ; Number of cases is 1, Range of values is 0 to 0
  6381                           ; switch strategies available:
  6382                           ; Name         Instructions Cycles
  6383                           ; simple_byte            4     3 (average)
  6384                           ;	Chosen strategy is simple_byte
  6385   001816  5002               	movf	(??_I2C_DO_RX+1)^0,w,c
  6386   001818  0A00               	xorlw	0	; case 0
  6387   00181A  B4D8               	btfsc	status,2,c
  6388   00181C  EF12  F00C         	goto	i2l4248
  6389   001820  EFF5  F00B         	goto	i2l3626
  6390   001824                     i2l4248:
  6391                           
  6392                           ; Switch size 1, requested type "simple"
  6393                           ; Number of cases is 4, Range of values is 1 to 4
  6394                           ; switch strategies available:
  6395                           ; Name         Instructions Cycles
  6396                           ; simple_byte           13     7 (average)
  6397                           ;	Chosen strategy is simple_byte
  6398   001824  5001               	movf	??_I2C_DO_RX^0,w,c
  6399   001826  0A01               	xorlw	1	; case 1
  6400   001828  B4D8               	btfsc	status,2,c
  6401   00182A  EFF5  F00B         	goto	i2l3626
  6402   00182E  0A03               	xorlw	3	; case 2
  6403   001830  B4D8               	btfsc	status,2,c
  6404   001832  EFF1  F00B         	goto	i2l3622
  6405   001836  0A01               	xorlw	1	; case 3
  6406   001838  B4D8               	btfsc	status,2,c
  6407   00183A  EFF1  F00B         	goto	i2l3622
  6408   00183E  0A07               	xorlw	7	; case 4
  6409   001840  B4D8               	btfsc	status,2,c
  6410   001842  EFF5  F00B         	goto	i2l3626
  6411   001846  EFF5  F00B         	goto	i2l3626
  6412   00184A                     i2l246:
  6413   00184A  0012               	return		;funcret
  6414   00184C                     __end_of_I2C_DO_RX:
  6415                           	callstack 0
  6416                           
  6417 ;; *************** function _I2C_DO_TX *****************
  6418 ;; Defined at:
  6419 ;;		line 356 in file "mcc_generated_files/i2c_client/src/i2c_master.c"
  6420 ;; Parameters:    Size  Location     Type
  6421 ;;		None
  6422 ;; Auto vars:     Size  Location     Type
  6423 ;;		None
  6424 ;; Return value:  Size  Location     Type
  6425 ;;                  1    wreg      enum E3134
  6426 ;; Registers used:
  6427 ;;		wreg, fsr2l, fsr2h, status,2, status,0, pcl, pclath, pclatu, tosl, prodl, prodh, cstack
  6428 ;; Tracked objects:
  6429 ;;		On entry : 0/0
  6430 ;;		On exit  : 0/0
  6431 ;;		Unchanged: 0/0
  6432 ;; Data sizes:     COMRAM   BANK0   BANK1   BANK2   BANK3   BANK4   BANK5   BANK6   BANK7   BANK8   BANK9  BANK10  BANK1
      +1  BANK12  BANK13  BANK14  BANK15
  6433 ;;      Params:         0       0       0       0       0       0       0       0       0       0       0       0       
      +0       0       0       0       0
  6434 ;;      Locals:         0       0       0       0       0       0       0       0       0       0       0       0       
      +0       0       0       0       0
  6435 ;;      Temps:          2       0       0       0       0       0       0       0       0       0       0       0       
      +0       0       0       0       0
  6436 ;;      Totals:         2       0       0       0       0       0       0       0       0       0       0       0       
      +0       0       0       0       0
  6437 ;;Total ram usage:        2 bytes
  6438 ;; Hardware stack levels used: 1
  6439 ;; Hardware stack levels required when called: 3
  6440 ;; This function calls:
  6441 ;;		NULL
  6442 ;;		_I2C_CallbackReturnReset
  6443 ;;		_I2C_CallbackReturnStop
  6444 ;;		_I2C_DO_SEND_RESTART_READ
  6445 ;;		_I2C_DO_SEND_RESTART_WRITE
  6446 ;;		_I2C_DO_SEND_STOP
  6447 ;;		_I2C_MasterIsNack
  6448 ;;		_I2C_MasterSendTxData
  6449 ;;		_rd1RegCompleteHandler
  6450 ;;		_rd2RegCompleteHandler
  6451 ;;		_rdBlkRegCompleteHandler
  6452 ;;		_wr1RegCompleteHandler
  6453 ;;		_wr2RegCompleteHandler
  6454 ;; This function is called by:
  6455 ;;		_I2C_MasterFsm
  6456 ;; This function uses a non-reentrant model
  6457 ;;
  6458                           
  6459                           	psect	text72
  6460   001418                     __ptext72:
  6461                           	callstack 0
  6462   001418                     _I2C_DO_TX:
  6463                           	callstack 17
  6464   001418                     
  6465                           ;mcc_generated_files/i2c_client/src/i2c_master.c: 358:     if(I2C_MasterIsNack())
  6466   001418  EC17  F011         	call	_I2C_MasterIsNack	;wreg free
  6467   00141C  0900               	iorlw	0
  6468   00141E  B4D8               	btfsc	status,2,c
  6469   001420  EF14  F00A         	goto	i2u165_41
  6470   001424  EF16  F00A         	goto	i2u165_40
  6471   001428                     i2u165_41:
  6472   001428  EF51  F00A         	goto	i2l229
  6473   00142C                     i2u165_40:
  6474   00142C  EF24  F00A         	goto	i2l3592
  6475   001430                     i2l3578:
  6476                           
  6477                           ;mcc_generated_files/i2c_client/src/i2c_master.c: 363:                 return I2C_DO_SEN
      +                          D_RESTART_READ();
  6478   001430  ECB1  F011         	call	_I2C_DO_SEND_RESTART_READ	;wreg free
  6479   001434  EF6D  F00A         	goto	i2l232
  6480   001438                     i2l3582:
  6481                           
  6482                           ;mcc_generated_files/i2c_client/src/i2c_master.c: 365:                   return I2C_DO_S
      +                          END_RESTART_WRITE();
  6483   001438  ECAD  F011         	call	_I2C_DO_SEND_RESTART_WRITE	;wreg free
  6484   00143C  EF6D  F00A         	goto	i2l232
  6485   001440                     i2l3586:
  6486                           
  6487                           ;mcc_generated_files/i2c_client/src/i2c_master.c: 369:                 return I2C_DO_SEN
      +                          D_STOP();
  6488   001440  ECA5  F011         	call	_I2C_DO_SEND_STOP	;wreg free
  6489   001444  EF6D  F00A         	goto	i2l232
  6490   001448                     i2l3592:
  6491   001448  C072  F00A         	movff	_I2C_Status+18,rdBlkRegCompleteHandler@ptr
  6492   00144C  C073  F00B         	movff	_I2C_Status+19,rdBlkRegCompleteHandler@ptr+1
  6493   001450  D802               	call	i2u166_48
  6494   001452  EF35  F00A         	goto	i2u166_49
  6495   001456                     i2u166_48:
  6496   001456  0005               	push	
  6497   001458  6EFA               	movwf	pclath,c
  6498   00145A  0100               	movlb	0	; () banked
  6499   00145C  5166               	movf	(_I2C_Status+6)& (0+255),w,b
  6500   00145E  6EFD               	movwf	tosl,c
  6501   001460  5167               	movf	(_I2C_Status+7)& (0+255),w,b
  6502   001462  6EFE               	movwf	tosh,c
  6503   001464  6AFF               	clrf	tosu,c
  6504   001466  50FA               	movf	pclath,w,c
  6505   001468  0012               	return		;indir
  6506   00146A                     i2u166_49:
  6507   00146A  6E02               	movwf	??_I2C_DO_TX^0,c
  6508   00146C  6A03               	clrf	(??_I2C_DO_TX+1)^0,c
  6509                           
  6510                           ; Switch on 2 bytes has been partitioned into a top level switch of size 1, and 1 sub-sw
      +                          itches
  6511                           ; Switch size 1, requested type "simple"
  6512                           ; Number of cases is 1, Range of values is 0 to 0
  6513                           ; switch strategies available:
  6514                           ; Name         Instructions Cycles
  6515                           ; simple_byte            4     3 (average)
  6516                           ;	Chosen strategy is simple_byte
  6517   00146E  5003               	movf	(??_I2C_DO_TX+1)^0,w,c
  6518   001470  0A00               	xorlw	0	; case 0
  6519   001472  B4D8               	btfsc	status,2,c
  6520   001474  EF3E  F00A         	goto	i2l4250
  6521   001478  EF20  F00A         	goto	i2l3586
  6522   00147C                     i2l4250:
  6523                           
  6524                           ; Switch size 1, requested type "simple"
  6525                           ; Number of cases is 4, Range of values is 1 to 4
  6526                           ; switch strategies available:
  6527                           ; Name         Instructions Cycles
  6528                           ; simple_byte           13     7 (average)
  6529                           ;	Chosen strategy is simple_byte
  6530   00147C  5002               	movf	??_I2C_DO_TX^0,w,c
  6531   00147E  0A01               	xorlw	1	; case 1
  6532   001480  B4D8               	btfsc	status,2,c
  6533   001482  EF20  F00A         	goto	i2l3586
  6534   001486  0A03               	xorlw	3	; case 2
  6535   001488  B4D8               	btfsc	status,2,c
  6536   00148A  EF18  F00A         	goto	i2l3578
  6537   00148E  0A01               	xorlw	1	; case 3
  6538   001490  B4D8               	btfsc	status,2,c
  6539   001492  EF1C  F00A         	goto	i2l3582
  6540   001496  0A07               	xorlw	7	; case 4
  6541   001498  B4D8               	btfsc	status,2,c
  6542   00149A  EF20  F00A         	goto	i2l3586
  6543   00149E  EF20  F00A         	goto	i2l3586
  6544   0014A2                     i2l229:
  6545                           
  6546                           ;mcc_generated_files/i2c_client/src/i2c_master.c: 373:     {;mcc_generated_files/i2c_cli
      +                          ent/src/i2c_master.c: 374:         I2C_Status.addressNackCheck = 0;
  6547   0014A2  0100               	movlb	0	; () banked
  6548   0014A4  9183               	bcf	(_I2C_Status+35)& (0+255),0,b
  6549   0014A6                     
  6550                           ; BSR set to: 0
  6551                           ;mcc_generated_files/i2c_client/src/i2c_master.c: 375:         I2C_MasterSendTxData(*I2C
      +                          _Status.data_ptr++);
  6552   0014A6  C07D  FFD9         	movff	_I2C_Status+29,fsr2l
  6553   0014AA  C07E  FFDA         	movff	_I2C_Status+30,fsr2h
  6554   0014AE  4B7D               	infsnz	(_I2C_Status+29)& (0+255),f,b
  6555   0014B0  2B7E               	incf	(_I2C_Status+30)& (0+255),f,b
  6556   0014B2  50DF               	movf	indf2,w,c
  6557   0014B4  ECB5  F011         	call	_I2C_MasterSendTxData
  6558   0014B8                     
  6559                           ;mcc_generated_files/i2c_client/src/i2c_master.c: 376:         return (--I2C_Status.data
      +                          _length)?I2C_TX:I2C_TX_EMPTY;
  6560   0014B8  0100               	movlb	0	; () banked
  6561   0014BA  077F               	decf	(_I2C_Status+31)& (0+255),f,b
  6562   0014BC  A0D8               	btfss	status,0,c
  6563   0014BE  0780               	decf	(_I2C_Status+32)& (0+255),f,b
  6564   0014C0  517F               	movf	(_I2C_Status+31)& (0+255),w,b
  6565   0014C2  1180               	iorwf	(_I2C_Status+32)& (0+255),w,b
  6566   0014C4  A4D8               	btfss	status,2,c
  6567   0014C6  EF67  F00A         	goto	i2u167_41
  6568   0014CA  EF69  F00A         	goto	i2u167_40
  6569   0014CE                     i2u167_41:
  6570   0014CE  EF6C  F00A         	goto	i2l3600
  6571   0014D2                     i2u167_40:
  6572   0014D2                     
  6573                           ; BSR set to: 0
  6574   0014D2  0E06               	movlw	6
  6575   0014D4  EF6D  F00A         	goto	i2l232
  6576   0014D8                     i2l3600:
  6577                           
  6578                           ; BSR set to: 0
  6579   0014D8  0E03               	movlw	3
  6580   0014DA                     i2l232:
  6581   0014DA  0012               	return		;funcret
  6582   0014DC                     __end_of_I2C_DO_TX:
  6583                           	callstack 0
  6584                           
  6585 ;; *************** function _I2C_DO_SEND_ADR_WRITE *****************
  6586 ;; Defined at:
  6587 ;;		line 349 in file "mcc_generated_files/i2c_client/src/i2c_master.c"
  6588 ;; Parameters:    Size  Location     Type
  6589 ;;		None
  6590 ;; Auto vars:     Size  Location     Type
  6591 ;;		None
  6592 ;; Return value:  Size  Location     Type
  6593 ;;                  1    wreg      enum E3134
  6594 ;; Registers used:
  6595 ;;		wreg, status,2, cstack
  6596 ;; Tracked objects:
  6597 ;;		On entry : 0/0
  6598 ;;		On exit  : 0/0
  6599 ;;		Unchanged: 0/0
  6600 ;; Data sizes:     COMRAM   BANK0   BANK1   BANK2   BANK3   BANK4   BANK5   BANK6   BANK7   BANK8   BANK9  BANK10  BANK1
      +1  BANK12  BANK13  BANK14  BANK15
  6601 ;;      Params:         0       0       0       0       0       0       0       0       0       0       0       0       
      +0       0       0       0       0
  6602 ;;      Locals:         0       0       0       0       0       0       0       0       0       0       0       0       
      +0       0       0       0       0
  6603 ;;      Temps:          0       0       0       0       0       0       0       0       0       0       0       0       
      +0       0       0       0       0
  6604 ;;      Totals:         0       0       0       0       0       0       0       0       0       0       0       0       
      +0       0       0       0       0
  6605 ;;Total ram usage:        0 bytes
  6606 ;; Hardware stack levels used: 1
  6607 ;; Hardware stack levels required when called: 1
  6608 ;; This function calls:
  6609 ;;		_I2C_MasterSendTxData
  6610 ;; This function is called by:
  6611 ;;		_I2C_MasterFsm
  6612 ;; This function uses a non-reentrant model
  6613 ;;
  6614                           
  6615                           	psect	text73
  6616   0022BE                     __ptext73:
  6617                           	callstack 0
  6618   0022BE                     _I2C_DO_SEND_ADR_WRITE:
  6619                           	callstack 19
  6620   0022BE                     
  6621                           ;mcc_generated_files/i2c_client/src/i2c_master.c: 351:     I2C_Status.addressNackCheck =
      +                           1;
  6622   0022BE  0100               	movlb	0	; () banked
  6623   0022C0  8183               	bsf	(_I2C_Status+35)& (0+255),0,b
  6624   0022C2                     
  6625                           ; BSR set to: 0
  6626                           ;mcc_generated_files/i2c_client/src/i2c_master.c: 352:     I2C_MasterSendTxData((uint8_t
      +                          ) (I2C_Status.address));
  6627   0022C2  517C               	movf	(_I2C_Status+28)& (0+255),w,b
  6628   0022C4  ECB5  F011         	call	_I2C_MasterSendTxData
  6629   0022C8                     
  6630                           ;mcc_generated_files/i2c_client/src/i2c_master.c: 353:     return I2C_TX;
  6631   0022C8  0E03               	movlw	3
  6632   0022CA  0012               	return		;funcret
  6633   0022CC                     __end_of_I2C_DO_SEND_ADR_WRITE:
  6634                           	callstack 0
  6635                           
  6636 ;; *************** function _I2C_DO_SEND_ADR_READ *****************
  6637 ;; Defined at:
  6638 ;;		line 342 in file "mcc_generated_files/i2c_client/src/i2c_master.c"
  6639 ;; Parameters:    Size  Location     Type
  6640 ;;		None
  6641 ;; Auto vars:     Size  Location     Type
  6642 ;;		None
  6643 ;; Return value:  Size  Location     Type
  6644 ;;                  1    wreg      enum E3134
  6645 ;; Registers used:
  6646 ;;		wreg, status,2, status,0, cstack
  6647 ;; Tracked objects:
  6648 ;;		On entry : 0/0
  6649 ;;		On exit  : 0/0
  6650 ;;		Unchanged: 0/0
  6651 ;; Data sizes:     COMRAM   BANK0   BANK1   BANK2   BANK3   BANK4   BANK5   BANK6   BANK7   BANK8   BANK9  BANK10  BANK1
      +1  BANK12  BANK13  BANK14  BANK15
  6652 ;;      Params:         0       0       0       0       0       0       0       0       0       0       0       0       
      +0       0       0       0       0
  6653 ;;      Locals:         0       0       0       0       0       0       0       0       0       0       0       0       
      +0       0       0       0       0
  6654 ;;      Temps:          0       0       0       0       0       0       0       0       0       0       0       0       
      +0       0       0       0       0
  6655 ;;      Totals:         0       0       0       0       0       0       0       0       0       0       0       0       
      +0       0       0       0       0
  6656 ;;Total ram usage:        0 bytes
  6657 ;; Hardware stack levels used: 1
  6658 ;; Hardware stack levels required when called: 1
  6659 ;; This function calls:
  6660 ;;		_I2C_MasterSendTxData
  6661 ;; This function is called by:
  6662 ;;		_I2C_MasterFsm
  6663 ;; This function uses a non-reentrant model
  6664 ;;
  6665                           
  6666                           	psect	text74
  6667   0022AE                     __ptext74:
  6668                           	callstack 0
  6669   0022AE                     _I2C_DO_SEND_ADR_READ:
  6670                           	callstack 19
  6671   0022AE                     
  6672                           ;mcc_generated_files/i2c_client/src/i2c_master.c: 344:     I2C_Status.addressNackCheck =
      +                           1;
  6673   0022AE  0100               	movlb	0	; () banked
  6674   0022B0  8183               	bsf	(_I2C_Status+35)& (0+255),0,b
  6675   0022B2                     
  6676                           ; BSR set to: 0
  6677                           ;mcc_generated_files/i2c_client/src/i2c_master.c: 345:     I2C_MasterSendTxData((uint8_t
      +                          ) (I2C_Status.address | 1));
  6678   0022B2  517C               	movf	(_I2C_Status+28)& (0+255),w,b
  6679   0022B4  0901               	iorlw	1
  6680   0022B6  ECB5  F011         	call	_I2C_MasterSendTxData
  6681   0022BA                     
  6682                           ;mcc_generated_files/i2c_client/src/i2c_master.c: 346:     return I2C_RCEN;
  6683   0022BA  0E05               	movlw	5
  6684   0022BC  0012               	return		;funcret
  6685   0022BE                     __end_of_I2C_DO_SEND_ADR_READ:
  6686                           	callstack 0
  6687                           
  6688 ;; *************** function _I2C_DO_IDLE *****************
  6689 ;; Defined at:
  6690 ;;		line 335 in file "mcc_generated_files/i2c_client/src/i2c_master.c"
  6691 ;; Parameters:    Size  Location     Type
  6692 ;;		None
  6693 ;; Auto vars:     Size  Location     Type
  6694 ;;		None
  6695 ;; Return value:  Size  Location     Type
  6696 ;;                  1    wreg      enum E3134
  6697 ;; Registers used:
  6698 ;;		wreg, status,2
  6699 ;; Tracked objects:
  6700 ;;		On entry : 0/0
  6701 ;;		On exit  : 0/0
  6702 ;;		Unchanged: 0/0
  6703 ;; Data sizes:     COMRAM   BANK0   BANK1   BANK2   BANK3   BANK4   BANK5   BANK6   BANK7   BANK8   BANK9  BANK10  BANK1
      +1  BANK12  BANK13  BANK14  BANK15
  6704 ;;      Params:         0       0       0       0       0       0       0       0       0       0       0       0       
      +0       0       0       0       0
  6705 ;;      Locals:         0       0       0       0       0       0       0       0       0       0       0       0       
      +0       0       0       0       0
  6706 ;;      Temps:          0       0       0       0       0       0       0       0       0       0       0       0       
      +0       0       0       0       0
  6707 ;;      Totals:         0       0       0       0       0       0       0       0       0       0       0       0       
      +0       0       0       0       0
  6708 ;;Total ram usage:        0 bytes
  6709 ;; Hardware stack levels used: 1
  6710 ;; This function calls:
  6711 ;;		Nothing
  6712 ;; This function is called by:
  6713 ;;		_I2C_MasterFsm
  6714 ;; This function uses a non-reentrant model
  6715 ;;
  6716                           
  6717                           	psect	text75
  6718   0022E4                     __ptext75:
  6719                           	callstack 0
  6720   0022E4                     _I2C_DO_IDLE:
  6721                           	callstack 20
  6722   0022E4                     
  6723                           ;mcc_generated_files/i2c_client/src/i2c_master.c: 337:     I2C_Status.busy = 0;
  6724   0022E4  0100               	movlb	0	; () banked
  6725   0022E6  9383               	bcf	(_I2C_Status+35)& (0+255),1,b
  6726   0022E8                     
  6727                           ; BSR set to: 0
  6728                           ;mcc_generated_files/i2c_client/src/i2c_master.c: 338:     I2C_Status.error = I2C_NOERR;
  6729   0022E8  0E00               	movlw	0
  6730   0022EA  6F82               	movwf	(_I2C_Status+34)& (0+255),b
  6731   0022EC                     
  6732                           ; BSR set to: 0
  6733                           ;mcc_generated_files/i2c_client/src/i2c_master.c: 339:     return I2C_RESET;
  6734   0022EC  0E0E               	movlw	14
  6735   0022EE                     
  6736                           ; BSR set to: 0
  6737   0022EE  0012               	return		;funcret
  6738   0022F0                     __end_of_I2C_DO_IDLE:
  6739                           	callstack 0
  6740                           
  6741 ;; *************** function _I2C_DO_TX_EMPTY *****************
  6742 ;; Defined at:
  6743 ;;		line 411 in file "mcc_generated_files/i2c_client/src/i2c_master.c"
  6744 ;; Parameters:    Size  Location     Type
  6745 ;;		None
  6746 ;; Auto vars:     Size  Location     Type
  6747 ;;		None
  6748 ;; Return value:  Size  Location     Type
  6749 ;;                  1    wreg      enum E3134
  6750 ;; Registers used:
  6751 ;;		wreg, fsr2l, fsr2h, status,2, status,0, pcl, pclath, pclatu, tosl, prodl, prodh, cstack
  6752 ;; Tracked objects:
  6753 ;;		On entry : 0/0
  6754 ;;		On exit  : 0/0
  6755 ;;		Unchanged: 0/0
  6756 ;; Data sizes:     COMRAM   BANK0   BANK1   BANK2   BANK3   BANK4   BANK5   BANK6   BANK7   BANK8   BANK9  BANK10  BANK1
      +1  BANK12  BANK13  BANK14  BANK15
  6757 ;;      Params:         0       0       0       0       0       0       0       0       0       0       0       0       
      +0       0       0       0       0
  6758 ;;      Locals:         0       0       0       0       0       0       0       0       0       0       0       0       
      +0       0       0       0       0
  6759 ;;      Temps:          2       0       0       0       0       0       0       0       0       0       0       0       
      +0       0       0       0       0
  6760 ;;      Totals:         2       0       0       0       0       0       0       0       0       0       0       0       
      +0       0       0       0       0
  6761 ;;Total ram usage:        2 bytes
  6762 ;; Hardware stack levels used: 1
  6763 ;; Hardware stack levels required when called: 3
  6764 ;; This function calls:
  6765 ;;		NULL
  6766 ;;		_I2C_CallbackReturnReset
  6767 ;;		_I2C_CallbackReturnStop
  6768 ;;		_I2C_DO_SEND_RESTART
  6769 ;;		_I2C_DO_SEND_STOP
  6770 ;;		_I2C_MasterSetIrq
  6771 ;;		_rd1RegCompleteHandler
  6772 ;;		_rd2RegCompleteHandler
  6773 ;;		_rdBlkRegCompleteHandler
  6774 ;;		_wr1RegCompleteHandler
  6775 ;;		_wr2RegCompleteHandler
  6776 ;; This function is called by:
  6777 ;;		_I2C_MasterFsm
  6778 ;; This function uses a non-reentrant model
  6779 ;;
  6780                           
  6781                           	psect	text76
  6782   001968                     __ptext76:
  6783                           	callstack 0
  6784   001968                     _I2C_DO_TX_EMPTY:
  6785                           	callstack 17
  6786   001968                     
  6787                           ;mcc_generated_files/i2c_client/src/i2c_master.c: 413:     I2C_Status.bufferFree = 1;
  6788   001968  0100               	movlb	0	; () banked
  6789   00196A  8783               	bsf	(_I2C_Status+35)& (0+255),3,b
  6790                           
  6791                           ;mcc_generated_files/i2c_client/src/i2c_master.c: 414:     switch(I2C_Status.callbackTab
      +                          le[I2C_DATA_COMPLETE](I2C_Status.callbackPayload[I2C_DATA_COMPLETE]))
  6792   00196C  EFC5  F00C         	goto	i2l3664
  6793   001970                     i2l3648:
  6794                           
  6795                           ;mcc_generated_files/i2c_client/src/i2c_master.c: 418:             return I2C_DO_SEND_RE
      +                          START();
  6796   001970  ECA9  F011         	call	_I2C_DO_SEND_RESTART	;wreg free
  6797   001974  EFF1  F00C         	goto	i2l263
  6798   001978                     i2l3652:
  6799                           
  6800                           ;mcc_generated_files/i2c_client/src/i2c_master.c: 420:             I2C_MasterSetIrq();
  6801   001978  ECD5  F011         	call	_I2C_MasterSetIrq	;wreg free
  6802   00197C                     
  6803                           ;mcc_generated_files/i2c_client/src/i2c_master.c: 421:             return I2C_TX;
  6804   00197C  0E03               	movlw	3
  6805   00197E  EFF1  F00C         	goto	i2l263
  6806   001982                     i2l3658:
  6807                           
  6808                           ;mcc_generated_files/i2c_client/src/i2c_master.c: 424:             return I2C_DO_SEND_ST
      +                          OP();
  6809   001982  ECA5  F011         	call	_I2C_DO_SEND_STOP	;wreg free
  6810   001986  EFF1  F00C         	goto	i2l263
  6811   00198A                     i2l3664:
  6812                           
  6813                           ; BSR set to: 0
  6814   00198A  C06C  F00A         	movff	_I2C_Status+12,rdBlkRegCompleteHandler@ptr
  6815   00198E  C06D  F00B         	movff	_I2C_Status+13,rdBlkRegCompleteHandler@ptr+1
  6816   001992  D802               	call	i2u170_48
  6817   001994  EFD5  F00C         	goto	i2u170_49
  6818   001998                     i2u170_48:
  6819   001998  0005               	push	
  6820   00199A  6EFA               	movwf	pclath,c
  6821   00199C  5160               	movf	_I2C_Status& (0+255),w,b
  6822   00199E  6EFD               	movwf	tosl,c
  6823   0019A0  5161               	movf	(_I2C_Status+1)& (0+255),w,b
  6824   0019A2  6EFE               	movwf	tosh,c
  6825   0019A4  6AFF               	clrf	tosu,c
  6826   0019A6  50FA               	movf	pclath,w,c
  6827   0019A8  0012               	return		;indir
  6828   0019AA                     i2u170_49:
  6829   0019AA  6E01               	movwf	??_I2C_DO_TX_EMPTY^0,c
  6830   0019AC  6A02               	clrf	(??_I2C_DO_TX_EMPTY+1)^0,c
  6831                           
  6832                           ; Switch on 2 bytes has been partitioned into a top level switch of size 1, and 1 sub-sw
      +                          itches
  6833                           ; Switch size 1, requested type "simple"
  6834                           ; Number of cases is 1, Range of values is 0 to 0
  6835                           ; switch strategies available:
  6836                           ; Name         Instructions Cycles
  6837                           ; simple_byte            4     3 (average)
  6838                           ;	Chosen strategy is simple_byte
  6839   0019AE  5002               	movf	(??_I2C_DO_TX_EMPTY+1)^0,w,c
  6840   0019B0  0A00               	xorlw	0	; case 0
  6841   0019B2  B4D8               	btfsc	status,2,c
  6842   0019B4  EFDE  F00C         	goto	i2l4252
  6843   0019B8  EFC1  F00C         	goto	i2l3658
  6844   0019BC                     i2l4252:
  6845                           
  6846                           ; Switch size 1, requested type "simple"
  6847                           ; Number of cases is 4, Range of values is 1 to 4
  6848                           ; switch strategies available:
  6849                           ; Name         Instructions Cycles
  6850                           ; simple_byte           13     7 (average)
  6851                           ;	Chosen strategy is simple_byte
  6852   0019BC  5001               	movf	??_I2C_DO_TX_EMPTY^0,w,c
  6853   0019BE  0A01               	xorlw	1	; case 1
  6854   0019C0  B4D8               	btfsc	status,2,c
  6855   0019C2  EFC1  F00C         	goto	i2l3658
  6856   0019C6  0A03               	xorlw	3	; case 2
  6857   0019C8  B4D8               	btfsc	status,2,c
  6858   0019CA  EFB8  F00C         	goto	i2l3648
  6859   0019CE  0A01               	xorlw	1	; case 3
  6860   0019D0  B4D8               	btfsc	status,2,c
  6861   0019D2  EFB8  F00C         	goto	i2l3648
  6862   0019D6  0A07               	xorlw	7	; case 4
  6863   0019D8  B4D8               	btfsc	status,2,c
  6864   0019DA  EFBC  F00C         	goto	i2l3652
  6865   0019DE  EFC1  F00C         	goto	i2l3658
  6866   0019E2                     i2l263:
  6867   0019E2  0012               	return		;funcret
  6868   0019E4                     __end_of_I2C_DO_TX_EMPTY:
  6869                           	callstack 0
  6870                           
  6871 ;; *************** function _I2C_MasterSetIrq *****************
  6872 ;; Defined at:
  6873 ;;		line 647 in file "mcc_generated_files/i2c_client/src/i2c_master.c"
  6874 ;; Parameters:    Size  Location     Type
  6875 ;;		None
  6876 ;; Auto vars:     Size  Location     Type
  6877 ;;		None
  6878 ;; Return value:  Size  Location     Type
  6879 ;;                  1    wreg      void 
  6880 ;; Registers used:
  6881 ;;		None
  6882 ;; Tracked objects:
  6883 ;;		On entry : 0/0
  6884 ;;		On exit  : 0/0
  6885 ;;		Unchanged: 0/0
  6886 ;; Data sizes:     COMRAM   BANK0   BANK1   BANK2   BANK3   BANK4   BANK5   BANK6   BANK7   BANK8   BANK9  BANK10  BANK1
      +1  BANK12  BANK13  BANK14  BANK15
  6887 ;;      Params:         0       0       0       0       0       0       0       0       0       0       0       0       
      +0       0       0       0       0
  6888 ;;      Locals:         0       0       0       0       0       0       0       0       0       0       0       0       
      +0       0       0       0       0
  6889 ;;      Temps:          0       0       0       0       0       0       0       0       0       0       0       0       
      +0       0       0       0       0
  6890 ;;      Totals:         0       0       0       0       0       0       0       0       0       0       0       0       
      +0       0       0       0       0
  6891 ;;Total ram usage:        0 bytes
  6892 ;; Hardware stack levels used: 1
  6893 ;; This function calls:
  6894 ;;		Nothing
  6895 ;; This function is called by:
  6896 ;;		_I2C_DO_TX_EMPTY
  6897 ;; This function uses a non-reentrant model
  6898 ;;
  6899                           
  6900                           	psect	text77
  6901   0023AA                     __ptext77:
  6902                           	callstack 0
  6903   0023AA                     _I2C_MasterSetIrq:
  6904                           	callstack 19
  6905   0023AA                     
  6906                           ;mcc_generated_files/i2c_client/src/i2c_master.c: 649:     PIR1bits.SSPIF = 1;
  6907   0023AA  869E               	bsf	158,3,c	;volatile
  6908   0023AC  0012               	return		;funcret
  6909   0023AE                     __end_of_I2C_MasterSetIrq:
  6910                           	callstack 0
  6911                           
  6912 ;; *************** function _I2C_MasterIsNack *****************
  6913 ;; Defined at:
  6914 ;;		line 599 in file "mcc_generated_files/i2c_client/src/i2c_master.c"
  6915 ;; Parameters:    Size  Location     Type
  6916 ;;		None
  6917 ;; Auto vars:     Size  Location     Type
  6918 ;;		None
  6919 ;; Return value:  Size  Location     Type
  6920 ;;                  1    wreg      _Bool 
  6921 ;; Registers used:
  6922 ;;		wreg
  6923 ;; Tracked objects:
  6924 ;;		On entry : 0/0
  6925 ;;		On exit  : 0/0
  6926 ;;		Unchanged: 0/0
  6927 ;; Data sizes:     COMRAM   BANK0   BANK1   BANK2   BANK3   BANK4   BANK5   BANK6   BANK7   BANK8   BANK9  BANK10  BANK1
      +1  BANK12  BANK13  BANK14  BANK15
  6928 ;;      Params:         0       0       0       0       0       0       0       0       0       0       0       0       
      +0       0       0       0       0
  6929 ;;      Locals:         0       0       0       0       0       0       0       0       0       0       0       0       
      +0       0       0       0       0
  6930 ;;      Temps:          0       0       0       0       0       0       0       0       0       0       0       0       
      +0       0       0       0       0
  6931 ;;      Totals:         0       0       0       0       0       0       0       0       0       0       0       0       
      +0       0       0       0       0
  6932 ;;Total ram usage:        0 bytes
  6933 ;; Hardware stack levels used: 1
  6934 ;; This function calls:
  6935 ;;		Nothing
  6936 ;; This function is called by:
  6937 ;;		_I2C_MasterFsm
  6938 ;;		_I2C_DO_TX
  6939 ;; This function uses a non-reentrant model
  6940 ;;
  6941                           
  6942                           	psect	text78
  6943   00222E                     __ptext78:
  6944                           	callstack 0
  6945   00222E                     _I2C_MasterIsNack:
  6946                           	callstack 20
  6947   00222E                     
  6948                           ;mcc_generated_files/i2c_client/src/i2c_master.c: 601:     return SSPCON2bits.ACKSTAT;
  6949   00222E  BCC5               	btfsc	197,6,c	;volatile
  6950   002230  EF1C  F011         	goto	i2u161_41
  6951   002234  EF1F  F011         	goto	i2u161_40
  6952   002238                     i2u161_41:
  6953   002238  0E01               	movlw	1
  6954   00223A  EF20  F011         	goto	i2u161_46
  6955   00223E                     i2u161_40:
  6956   00223E  0E00               	movlw	0
  6957   002240                     i2u161_46:
  6958   002240  0012               	return		;funcret
  6959   002242                     __end_of_I2C_MasterIsNack:
  6960                           	callstack 0
  6961                           
  6962 ;; *************** function _I2C_MasterSendTxData *****************
  6963 ;; Defined at:
  6964 ;;		line 569 in file "mcc_generated_files/i2c_client/src/i2c_master.c"
  6965 ;; Parameters:    Size  Location     Type
  6966 ;;  data            1    wreg     unsigned char 
  6967 ;; Auto vars:     Size  Location     Type
  6968 ;;  data            1    0[COMRAM] unsigned char 
  6969 ;; Return value:  Size  Location     Type
  6970 ;;                  1    wreg      void 
  6971 ;; Registers used:
  6972 ;;		wreg
  6973 ;; Tracked objects:
  6974 ;;		On entry : 0/0
  6975 ;;		On exit  : 0/0
  6976 ;;		Unchanged: 0/0
  6977 ;; Data sizes:     COMRAM   BANK0   BANK1   BANK2   BANK3   BANK4   BANK5   BANK6   BANK7   BANK8   BANK9  BANK10  BANK1
      +1  BANK12  BANK13  BANK14  BANK15
  6978 ;;      Params:         0       0       0       0       0       0       0       0       0       0       0       0       
      +0       0       0       0       0
  6979 ;;      Locals:         1       0       0       0       0       0       0       0       0       0       0       0       
      +0       0       0       0       0
  6980 ;;      Temps:          0       0       0       0       0       0       0       0       0       0       0       0       
      +0       0       0       0       0
  6981 ;;      Totals:         1       0       0       0       0       0       0       0       0       0       0       0       
      +0       0       0       0       0
  6982 ;;Total ram usage:        1 bytes
  6983 ;; Hardware stack levels used: 1
  6984 ;; This function calls:
  6985 ;;		Nothing
  6986 ;; This function is called by:
  6987 ;;		_I2C_DO_SEND_ADR_READ
  6988 ;;		_I2C_DO_SEND_ADR_WRITE
  6989 ;;		_I2C_DO_TX
  6990 ;; This function uses a non-reentrant model
  6991 ;;
  6992                           
  6993                           	psect	text79
  6994   00236A                     __ptext79:
  6995                           	callstack 0
  6996   00236A                     _I2C_MasterSendTxData:
  6997                           	callstack 19
  6998                           
  6999                           ;incstack = 0
  7000                           ;I2C_MasterSendTxData@data stored from wreg
  7001   00236A  6E01               	movwf	I2C_MasterSendTxData@data^0,c
  7002   00236C                     
  7003                           ;mcc_generated_files/i2c_client/src/i2c_master.c: 569: static __attribute__((inline)) vo
      +                          id I2C_MasterSendTxData(uint8_t data);mcc_generated_files/i2c_client/src/i2c_master.c: 5
      +                          70: {;mcc_generated_files/i2c_client/src/i2c_master.c: 571:     SSPBUF = data;
  7004   00236C  C001  FFC9         	movff	I2C_MasterSendTxData@data,4041	;volatile
  7005   002370  0012               	return		;funcret
  7006   002372                     __end_of_I2C_MasterSendTxData:
  7007                           	callstack 0
  7008                           
  7009 ;; *************** function _I2C_MasterSendAck *****************
  7010 ;; Defined at:
  7011 ;;		line 604 in file "mcc_generated_files/i2c_client/src/i2c_master.c"
  7012 ;; Parameters:    Size  Location     Type
  7013 ;;		None
  7014 ;; Auto vars:     Size  Location     Type
  7015 ;;		None
  7016 ;; Return value:  Size  Location     Type
  7017 ;;                  1    wreg      void 
  7018 ;; Registers used:
  7019 ;;		None
  7020 ;; Tracked objects:
  7021 ;;		On entry : 0/0
  7022 ;;		On exit  : 0/0
  7023 ;;		Unchanged: 0/0
  7024 ;; Data sizes:     COMRAM   BANK0   BANK1   BANK2   BANK3   BANK4   BANK5   BANK6   BANK7   BANK8   BANK9  BANK10  BANK1
      +1  BANK12  BANK13  BANK14  BANK15
  7025 ;;      Params:         0       0       0       0       0       0       0       0       0       0       0       0       
      +0       0       0       0       0
  7026 ;;      Locals:         0       0       0       0       0       0       0       0       0       0       0       0       
      +0       0       0       0       0
  7027 ;;      Temps:          0       0       0       0       0       0       0       0       0       0       0       0       
      +0       0       0       0       0
  7028 ;;      Totals:         0       0       0       0       0       0       0       0       0       0       0       0       
      +0       0       0       0       0
  7029 ;;Total ram usage:        0 bytes
  7030 ;; Hardware stack levels used: 1
  7031 ;; This function calls:
  7032 ;;		Nothing
  7033 ;; This function is called by:
  7034 ;;		_I2C_DO_RX
  7035 ;;		_I2C_DO_RX_ACK
  7036 ;; This function uses a non-reentrant model
  7037 ;;
  7038                           
  7039                           	psect	text80
  7040   00237E                     __ptext80:
  7041                           	callstack 0
  7042   00237E                     _I2C_MasterSendAck:
  7043                           	callstack 19
  7044   00237E                     
  7045                           ;mcc_generated_files/i2c_client/src/i2c_master.c: 606:     SSPCON2bits.ACKDT = 0;
  7046   00237E  9AC5               	bcf	197,5,c	;volatile
  7047                           
  7048                           ;mcc_generated_files/i2c_client/src/i2c_master.c: 607:     SSPCON2bits.ACKEN = 1;
  7049   002380  88C5               	bsf	197,4,c	;volatile
  7050   002382  0012               	return		;funcret
  7051   002384                     __end_of_I2C_MasterSendAck:
  7052                           	callstack 0
  7053                           
  7054 ;; *************** function _I2C_MasterGetRxData *****************
  7055 ;; Defined at:
  7056 ;;		line 564 in file "mcc_generated_files/i2c_client/src/i2c_master.c"
  7057 ;; Parameters:    Size  Location     Type
  7058 ;;		None
  7059 ;; Auto vars:     Size  Location     Type
  7060 ;;		None
  7061 ;; Return value:  Size  Location     Type
  7062 ;;                  1    wreg      unsigned char 
  7063 ;; Registers used:
  7064 ;;		wreg, status,2
  7065 ;; Tracked objects:
  7066 ;;		On entry : 0/0
  7067 ;;		On exit  : 0/0
  7068 ;;		Unchanged: 0/0
  7069 ;; Data sizes:     COMRAM   BANK0   BANK1   BANK2   BANK3   BANK4   BANK5   BANK6   BANK7   BANK8   BANK9  BANK10  BANK1
      +1  BANK12  BANK13  BANK14  BANK15
  7070 ;;      Params:         0       0       0       0       0       0       0       0       0       0       0       0       
      +0       0       0       0       0
  7071 ;;      Locals:         0       0       0       0       0       0       0       0       0       0       0       0       
      +0       0       0       0       0
  7072 ;;      Temps:          0       0       0       0       0       0       0       0       0       0       0       0       
      +0       0       0       0       0
  7073 ;;      Totals:         0       0       0       0       0       0       0       0       0       0       0       0       
      +0       0       0       0       0
  7074 ;;Total ram usage:        0 bytes
  7075 ;; Hardware stack levels used: 1
  7076 ;; This function calls:
  7077 ;;		Nothing
  7078 ;; This function is called by:
  7079 ;;		_I2C_DO_RX
  7080 ;; This function uses a non-reentrant model
  7081 ;;
  7082                           
  7083                           	psect	text81
  7084   0023AE                     __ptext81:
  7085                           	callstack 0
  7086   0023AE                     _I2C_MasterGetRxData:
  7087                           	callstack 19
  7088   0023AE                     
  7089                           ;mcc_generated_files/i2c_client/src/i2c_master.c: 566:     return SSPBUF;
  7090   0023AE  50C9               	movf	201,w,c	;volatile
  7091   0023B0  0012               	return		;funcret
  7092   0023B2                     __end_of_I2C_MasterGetRxData:
  7093                           	callstack 0
  7094                           
  7095 ;; *************** function _I2C_MasterSendNack *****************
  7096 ;; Defined at:
  7097 ;;		line 610 in file "mcc_generated_files/i2c_client/src/i2c_master.c"
  7098 ;; Parameters:    Size  Location     Type
  7099 ;;		None
  7100 ;; Auto vars:     Size  Location     Type
  7101 ;;		None
  7102 ;; Return value:  Size  Location     Type
  7103 ;;                  1    wreg      void 
  7104 ;; Registers used:
  7105 ;;		None
  7106 ;; Tracked objects:
  7107 ;;		On entry : 0/0
  7108 ;;		On exit  : 0/0
  7109 ;;		Unchanged: 0/0
  7110 ;; Data sizes:     COMRAM   BANK0   BANK1   BANK2   BANK3   BANK4   BANK5   BANK6   BANK7   BANK8   BANK9  BANK10  BANK1
      +1  BANK12  BANK13  BANK14  BANK15
  7111 ;;      Params:         0       0       0       0       0       0       0       0       0       0       0       0       
      +0       0       0       0       0
  7112 ;;      Locals:         0       0       0       0       0       0       0       0       0       0       0       0       
      +0       0       0       0       0
  7113 ;;      Temps:          0       0       0       0       0       0       0       0       0       0       0       0       
      +0       0       0       0       0
  7114 ;;      Totals:         0       0       0       0       0       0       0       0       0       0       0       0       
      +0       0       0       0       0
  7115 ;;Total ram usage:        0 bytes
  7116 ;; Hardware stack levels used: 1
  7117 ;; This function calls:
  7118 ;;		Nothing
  7119 ;; This function is called by:
  7120 ;;		_I2C_DO_RX_NACK_STOP
  7121 ;;		_I2C_DO_RX_NACK_RESTART
  7122 ;; This function uses a non-reentrant model
  7123 ;;
  7124                           
  7125                           	psect	text82
  7126   002384                     __ptext82:
  7127                           	callstack 0
  7128   002384                     _I2C_MasterSendNack:
  7129                           	callstack 19
  7130   002384                     
  7131                           ;mcc_generated_files/i2c_client/src/i2c_master.c: 612:     SSPCON2bits.ACKDT = 1;
  7132   002384  8AC5               	bsf	197,5,c	;volatile
  7133                           
  7134                           ;mcc_generated_files/i2c_client/src/i2c_master.c: 613:     SSPCON2bits.ACKEN = 1;
  7135   002386  88C5               	bsf	197,4,c	;volatile
  7136   002388  0012               	return		;funcret
  7137   00238A                     __end_of_I2C_MasterSendNack:
  7138                           	callstack 0
  7139                           
  7140 ;; *************** function _I2C_MasterStartRx *****************
  7141 ;; Defined at:
  7142 ;;		line 584 in file "mcc_generated_files/i2c_client/src/i2c_master.c"
  7143 ;; Parameters:    Size  Location     Type
  7144 ;;		None
  7145 ;; Auto vars:     Size  Location     Type
  7146 ;;		None
  7147 ;; Return value:  Size  Location     Type
  7148 ;;                  1    wreg      void 
  7149 ;; Registers used:
  7150 ;;		None
  7151 ;; Tracked objects:
  7152 ;;		On entry : 0/0
  7153 ;;		On exit  : 0/0
  7154 ;;		Unchanged: 0/0
  7155 ;; Data sizes:     COMRAM   BANK0   BANK1   BANK2   BANK3   BANK4   BANK5   BANK6   BANK7   BANK8   BANK9  BANK10  BANK1
      +1  BANK12  BANK13  BANK14  BANK15
  7156 ;;      Params:         0       0       0       0       0       0       0       0       0       0       0       0       
      +0       0       0       0       0
  7157 ;;      Locals:         0       0       0       0       0       0       0       0       0       0       0       0       
      +0       0       0       0       0
  7158 ;;      Temps:          0       0       0       0       0       0       0       0       0       0       0       0       
      +0       0       0       0       0
  7159 ;;      Totals:         0       0       0       0       0       0       0       0       0       0       0       0       
      +0       0       0       0       0
  7160 ;;Total ram usage:        0 bytes
  7161 ;; Hardware stack levels used: 1
  7162 ;; This function calls:
  7163 ;;		Nothing
  7164 ;; This function is called by:
  7165 ;;		_I2C_DO_RCEN
  7166 ;; This function uses a non-reentrant model
  7167 ;;
  7168                           
  7169                           	psect	text83
  7170   0023B2                     __ptext83:
  7171                           	callstack 0
  7172   0023B2                     _I2C_MasterStartRx:
  7173                           	callstack 19
  7174   0023B2                     
  7175                           ;mcc_generated_files/i2c_client/src/i2c_master.c: 586:     SSPCON2bits.RCEN = 1;
  7176   0023B2  86C5               	bsf	197,3,c	;volatile
  7177   0023B4  0012               	return		;funcret
  7178   0023B6                     __end_of_I2C_MasterStartRx:
  7179                           	callstack 0
  7180                           
  7181 ;; *************** function _rdBlkRegCompleteHandler *****************
  7182 ;; Defined at:
  7183 ;;		line 178 in file "mcc_generated_files/i2c_client/src/i2c_master_example.c"
  7184 ;; Parameters:    Size  Location     Type
  7185 ;;  ptr             2    9[COMRAM] PTR void 
  7186 ;;		 -> I2C_ReadDataBlock@bufferBlock(4), I2C_Write2ByteRegister@data(2), I2C_Write1ByteRegister@data(1), I2C_Read2ByteR
      +egister@returnValue(2), 
  7187 ;;		 -> I2C_Read1ByteRegister@returnValue(1), NULL(0), 
  7188 ;; Auto vars:     Size  Location     Type
  7189 ;;		None
  7190 ;; Return value:  Size  Location     Type
  7191 ;;                  1    wreg      enum E363
  7192 ;; Registers used:
  7193 ;;		wreg, fsr2l, fsr2h, status,2, status,0, prodl, prodh, cstack
  7194 ;; Tracked objects:
  7195 ;;		On entry : 0/0
  7196 ;;		On exit  : 0/0
  7197 ;;		Unchanged: 0/0
  7198 ;; Data sizes:     COMRAM   BANK0   BANK1   BANK2   BANK3   BANK4   BANK5   BANK6   BANK7   BANK8   BANK9  BANK10  BANK1
      +1  BANK12  BANK13  BANK14  BANK15
  7199 ;;      Params:         2       0       0       0       0       0       0       0       0       0       0       0       
      +0       0       0       0       0
  7200 ;;      Locals:         0       0       0       0       0       0       0       0       0       0       0       0       
      +0       0       0       0       0
  7201 ;;      Temps:          1       0       0       0       0       0       0       0       0       0       0       0       
      +0       0       0       0       0
  7202 ;;      Totals:         3       0       0       0       0       0       0       0       0       0       0       0       
      +0       0       0       0       0
  7203 ;;Total ram usage:        3 bytes
  7204 ;; Hardware stack levels used: 1
  7205 ;; Hardware stack levels required when called: 2
  7206 ;; This function calls:
  7207 ;;		i2_I2C_SetBuffer
  7208 ;;		i2_I2C_SetDataCompleteCallback
  7209 ;; This function is called by:
  7210 ;;		_I2C_ReadDataBlock
  7211 ;;		_I2C_DO_TX
  7212 ;;		_I2C_DO_RX
  7213 ;;		_I2C_DO_TX_EMPTY
  7214 ;;		_I2C_DO_ADDRESS_NACK
  7215 ;;		_I2C_DO_RX_EMPTY
  7216 ;; This function uses a non-reentrant model
  7217 ;;
  7218                           
  7219                           	psect	text84
  7220   001DB2                     __ptext84:
  7221                           	callstack 0
  7222   001DB2                     _rdBlkRegCompleteHandler:
  7223                           	callstack 17
  7224   001DB2                     
  7225                           ;mcc_generated_files/i2c_client/src/i2c_master_example.c: 178: static i2c_operations_t r
      +                          dBlkRegCompleteHandler(void *ptr);mcc_generated_files/i2c_client/src/i2c_master_example.
      +                          c: 179: {;mcc_generated_files/i2c_client/src/i2c_master_example.c: 180:     I2C_SetBuffe
      +                          r(((i2c_buffer_t *)ptr)->data,((i2c_buffer_t*)ptr)->len);
  7226   001DB2  EE20 F002          	lfsr	2,2
  7227   001DB6  500A               	movf	rdBlkRegCompleteHandler@ptr^0,w,c
  7228   001DB8  26D9               	addwf	fsr2l,f,c
  7229   001DBA  500B               	movf	(rdBlkRegCompleteHandler@ptr+1)^0,w,c
  7230   001DBC  22DA               	addwfc	fsr2h,f,c
  7231   001DBE  50DF               	movf	indf2,w,c
  7232   001DC0  6E0C               	movwf	??_rdBlkRegCompleteHandler^0,c
  7233   001DC2  C00C  F001         	movff	??_rdBlkRegCompleteHandler,i2I2C_SetBuffer@buffer
  7234   001DC6  6A02               	clrf	(i2I2C_SetBuffer@buffer+1)^0,c
  7235   001DC8  C00A  FFD9         	movff	rdBlkRegCompleteHandler@ptr,fsr2l
  7236   001DCC  C00B  FFDA         	movff	rdBlkRegCompleteHandler@ptr+1,fsr2h
  7237   001DD0  CFDE F003          	movff	postinc2,i2I2C_SetBuffer@bufferSize
  7238   001DD4  CFDD F004          	movff	postdec2,i2I2C_SetBuffer@bufferSize+1
  7239   001DD8  EC7D  F010         	call	i2_I2C_SetBuffer	;wreg free
  7240   001DDC                     
  7241                           ;mcc_generated_files/i2c_client/src/i2c_master_example.c: 181:     I2C_SetDataCompleteCa
      +                          llback(((void*)0),((void*)0));
  7242   001DDC  0E00               	movlw	0
  7243   001DDE  6E06               	movwf	i2I2C_SetDataCompleteCallback@cb^0,c
  7244   001DE0  0E00               	movlw	0
  7245   001DE2  6E07               	movwf	(i2I2C_SetDataCompleteCallback@cb+1)^0,c
  7246   001DE4  0E00               	movlw	0
  7247   001DE6  6E08               	movwf	i2I2C_SetDataCompleteCallback@ptr^0,c
  7248   001DE8  0E00               	movlw	0
  7249   001DEA  6E09               	movwf	(i2I2C_SetDataCompleteCallback@ptr+1)^0,c
  7250   001DEC  EC01  F011         	call	i2_I2C_SetDataCompleteCallback	;wreg free
  7251   001DF0                     
  7252                           ;mcc_generated_files/i2c_client/src/i2c_master_example.c: 182:     return I2C_RESTART_RE
      +                          AD;
  7253   001DF0  0E02               	movlw	2
  7254   001DF2  0012               	return		;funcret
  7255   001DF4                     __end_of_rdBlkRegCompleteHandler:
  7256                           	callstack 0
  7257                           
  7258 ;; *************** function _wr1RegCompleteHandler *****************
  7259 ;; Defined at:
  7260 ;;		line 164 in file "mcc_generated_files/i2c_client/src/i2c_master_example.c"
  7261 ;; Parameters:    Size  Location     Type
  7262 ;;  ptr             2    9[COMRAM] PTR void 
  7263 ;;		 -> I2C_ReadDataBlock@bufferBlock(4), I2C_Write2ByteRegister@data(2), I2C_Write1ByteRegister@data(1), I2C_Read2ByteR
      +egister@returnValue(2), 
  7264 ;;		 -> I2C_Read1ByteRegister@returnValue(1), NULL(0), 
  7265 ;; Auto vars:     Size  Location     Type
  7266 ;;		None
  7267 ;; Return value:  Size  Location     Type
  7268 ;;                  1    wreg      enum E363
  7269 ;; Registers used:
  7270 ;;		wreg, fsr2l, fsr2h, status,2, status,0, prodl, prodh, cstack
  7271 ;; Tracked objects:
  7272 ;;		On entry : 0/0
  7273 ;;		On exit  : 0/0
  7274 ;;		Unchanged: 0/0
  7275 ;; Data sizes:     COMRAM   BANK0   BANK1   BANK2   BANK3   BANK4   BANK5   BANK6   BANK7   BANK8   BANK9  BANK10  BANK1
      +1  BANK12  BANK13  BANK14  BANK15
  7276 ;;      Params:         2       0       0       0       0       0       0       0       0       0       0       0       
      +0       0       0       0       0
  7277 ;;      Locals:         0       0       0       0       0       0       0       0       0       0       0       0       
      +0       0       0       0       0
  7278 ;;      Temps:          0       0       0       0       0       0       0       0       0       0       0       0       
      +0       0       0       0       0
  7279 ;;      Totals:         2       0       0       0       0       0       0       0       0       0       0       0       
      +0       0       0       0       0
  7280 ;;Total ram usage:        2 bytes
  7281 ;; Hardware stack levels used: 1
  7282 ;; Hardware stack levels required when called: 2
  7283 ;; This function calls:
  7284 ;;		i2_I2C_SetBuffer
  7285 ;;		i2_I2C_SetDataCompleteCallback
  7286 ;; This function is called by:
  7287 ;;		_I2C_Write1ByteRegister
  7288 ;;		_I2C_DO_TX
  7289 ;;		_I2C_DO_RX
  7290 ;;		_I2C_DO_TX_EMPTY
  7291 ;;		_I2C_DO_ADDRESS_NACK
  7292 ;;		_I2C_DO_RX_EMPTY
  7293 ;; This function uses a non-reentrant model
  7294 ;;
  7295                           
  7296                           	psect	text85
  7297   001FFE                     __ptext85:
  7298                           	callstack 0
  7299   001FFE                     _wr1RegCompleteHandler:
  7300                           	callstack 17
  7301   001FFE                     
  7302                           ;mcc_generated_files/i2c_client/src/i2c_master_example.c: 164: static i2c_operations_t w
      +                          r1RegCompleteHandler(void *ptr);mcc_generated_files/i2c_client/src/i2c_master_example.c:
      +                           165: {;mcc_generated_files/i2c_client/src/i2c_master_example.c: 166:     I2C_SetBuffer(
      +                          ptr,1);
  7303   001FFE  C00A  F001         	movff	wr1RegCompleteHandler@ptr,i2I2C_SetBuffer@buffer
  7304   002002  C00B  F002         	movff	wr1RegCompleteHandler@ptr+1,i2I2C_SetBuffer@buffer+1
  7305   002006  0E00               	movlw	0
  7306   002008  6E04               	movwf	(i2I2C_SetBuffer@bufferSize+1)^0,c
  7307   00200A  0E01               	movlw	1
  7308   00200C  6E03               	movwf	i2I2C_SetBuffer@bufferSize^0,c
  7309   00200E  EC7D  F010         	call	i2_I2C_SetBuffer	;wreg free
  7310   002012                     
  7311                           ;mcc_generated_files/i2c_client/src/i2c_master_example.c: 167:     I2C_SetDataCompleteCa
      +                          llback(((void*)0),((void*)0));
  7312   002012  0E00               	movlw	0
  7313   002014  6E06               	movwf	i2I2C_SetDataCompleteCallback@cb^0,c
  7314   002016  0E00               	movlw	0
  7315   002018  6E07               	movwf	(i2I2C_SetDataCompleteCallback@cb+1)^0,c
  7316   00201A  0E00               	movlw	0
  7317   00201C  6E08               	movwf	i2I2C_SetDataCompleteCallback@ptr^0,c
  7318   00201E  0E00               	movlw	0
  7319   002020  6E09               	movwf	(i2I2C_SetDataCompleteCallback@ptr+1)^0,c
  7320   002022  EC01  F011         	call	i2_I2C_SetDataCompleteCallback	;wreg free
  7321   002026                     
  7322                           ;mcc_generated_files/i2c_client/src/i2c_master_example.c: 168:     return I2C_CONTINUE;
  7323   002026  0E04               	movlw	4
  7324   002028  0012               	return		;funcret
  7325   00202A                     __end_of_wr1RegCompleteHandler:
  7326                           	callstack 0
  7327                           
  7328 ;; *************** function _rd2RegCompleteHandler *****************
  7329 ;; Defined at:
  7330 ;;		line 157 in file "mcc_generated_files/i2c_client/src/i2c_master_example.c"
  7331 ;; Parameters:    Size  Location     Type
  7332 ;;  ptr             2    9[COMRAM] PTR void 
  7333 ;;		 -> I2C_ReadDataBlock@bufferBlock(4), I2C_Write2ByteRegister@data(2), I2C_Write1ByteRegister@data(1), I2C_Read2ByteR
      +egister@returnValue(2), 
  7334 ;;		 -> I2C_Read1ByteRegister@returnValue(1), NULL(0), 
  7335 ;; Auto vars:     Size  Location     Type
  7336 ;;		None
  7337 ;; Return value:  Size  Location     Type
  7338 ;;                  1    wreg      enum E363
  7339 ;; Registers used:
  7340 ;;		wreg, fsr2l, fsr2h, status,2, status,0, prodl, prodh, cstack
  7341 ;; Tracked objects:
  7342 ;;		On entry : 0/0
  7343 ;;		On exit  : 0/0
  7344 ;;		Unchanged: 0/0
  7345 ;; Data sizes:     COMRAM   BANK0   BANK1   BANK2   BANK3   BANK4   BANK5   BANK6   BANK7   BANK8   BANK9  BANK10  BANK1
      +1  BANK12  BANK13  BANK14  BANK15
  7346 ;;      Params:         2       0       0       0       0       0       0       0       0       0       0       0       
      +0       0       0       0       0
  7347 ;;      Locals:         0       0       0       0       0       0       0       0       0       0       0       0       
      +0       0       0       0       0
  7348 ;;      Temps:          0       0       0       0       0       0       0       0       0       0       0       0       
      +0       0       0       0       0
  7349 ;;      Totals:         2       0       0       0       0       0       0       0       0       0       0       0       
      +0       0       0       0       0
  7350 ;;Total ram usage:        2 bytes
  7351 ;; Hardware stack levels used: 1
  7352 ;; Hardware stack levels required when called: 2
  7353 ;; This function calls:
  7354 ;;		i2_I2C_SetBuffer
  7355 ;;		i2_I2C_SetDataCompleteCallback
  7356 ;; This function is called by:
  7357 ;;		_I2C_Read2ByteRegister
  7358 ;;		_I2C_DO_TX
  7359 ;;		_I2C_DO_RX
  7360 ;;		_I2C_DO_TX_EMPTY
  7361 ;;		_I2C_DO_ADDRESS_NACK
  7362 ;;		_I2C_DO_RX_EMPTY
  7363 ;; This function uses a non-reentrant model
  7364 ;;
  7365                           
  7366                           	psect	text86
  7367   00202A                     __ptext86:
  7368                           	callstack 0
  7369   00202A                     _rd2RegCompleteHandler:
  7370                           	callstack 17
  7371   00202A                     
  7372                           ;mcc_generated_files/i2c_client/src/i2c_master_example.c: 157: static i2c_operations_t r
      +                          d2RegCompleteHandler(void *ptr);mcc_generated_files/i2c_client/src/i2c_master_example.c:
      +                           158: {;mcc_generated_files/i2c_client/src/i2c_master_example.c: 159:     I2C_SetBuffer(
      +                          ptr,2);
  7373   00202A  C00A  F001         	movff	rd2RegCompleteHandler@ptr,i2I2C_SetBuffer@buffer
  7374   00202E  C00B  F002         	movff	rd2RegCompleteHandler@ptr+1,i2I2C_SetBuffer@buffer+1
  7375   002032  0E00               	movlw	0
  7376   002034  6E04               	movwf	(i2I2C_SetBuffer@bufferSize+1)^0,c
  7377   002036  0E02               	movlw	2
  7378   002038  6E03               	movwf	i2I2C_SetBuffer@bufferSize^0,c
  7379   00203A  EC7D  F010         	call	i2_I2C_SetBuffer	;wreg free
  7380   00203E                     
  7381                           ;mcc_generated_files/i2c_client/src/i2c_master_example.c: 160:     I2C_SetDataCompleteCa
      +                          llback(((void*)0),((void*)0));
  7382   00203E  0E00               	movlw	0
  7383   002040  6E06               	movwf	i2I2C_SetDataCompleteCallback@cb^0,c
  7384   002042  0E00               	movlw	0
  7385   002044  6E07               	movwf	(i2I2C_SetDataCompleteCallback@cb+1)^0,c
  7386   002046  0E00               	movlw	0
  7387   002048  6E08               	movwf	i2I2C_SetDataCompleteCallback@ptr^0,c
  7388   00204A  0E00               	movlw	0
  7389   00204C  6E09               	movwf	(i2I2C_SetDataCompleteCallback@ptr+1)^0,c
  7390   00204E  EC01  F011         	call	i2_I2C_SetDataCompleteCallback	;wreg free
  7391   002052                     
  7392                           ;mcc_generated_files/i2c_client/src/i2c_master_example.c: 161:     return I2C_RESTART_RE
      +                          AD;
  7393   002052  0E02               	movlw	2
  7394   002054  0012               	return		;funcret
  7395   002056                     __end_of_rd2RegCompleteHandler:
  7396                           	callstack 0
  7397                           
  7398 ;; *************** function _rd1RegCompleteHandler *****************
  7399 ;; Defined at:
  7400 ;;		line 150 in file "mcc_generated_files/i2c_client/src/i2c_master_example.c"
  7401 ;; Parameters:    Size  Location     Type
  7402 ;;  ptr             2    9[COMRAM] PTR void 
  7403 ;;		 -> I2C_ReadDataBlock@bufferBlock(4), I2C_Write2ByteRegister@data(2), I2C_Write1ByteRegister@data(1), I2C_Read2ByteR
      +egister@returnValue(2), 
  7404 ;;		 -> I2C_Read1ByteRegister@returnValue(1), NULL(0), 
  7405 ;; Auto vars:     Size  Location     Type
  7406 ;;		None
  7407 ;; Return value:  Size  Location     Type
  7408 ;;                  1    wreg      enum E363
  7409 ;; Registers used:
  7410 ;;		wreg, fsr2l, fsr2h, status,2, status,0, prodl, prodh, cstack
  7411 ;; Tracked objects:
  7412 ;;		On entry : 0/0
  7413 ;;		On exit  : 0/0
  7414 ;;		Unchanged: 0/0
  7415 ;; Data sizes:     COMRAM   BANK0   BANK1   BANK2   BANK3   BANK4   BANK5   BANK6   BANK7   BANK8   BANK9  BANK10  BANK1
      +1  BANK12  BANK13  BANK14  BANK15
  7416 ;;      Params:         2       0       0       0       0       0       0       0       0       0       0       0       
      +0       0       0       0       0
  7417 ;;      Locals:         0       0       0       0       0       0       0       0       0       0       0       0       
      +0       0       0       0       0
  7418 ;;      Temps:          0       0       0       0       0       0       0       0       0       0       0       0       
      +0       0       0       0       0
  7419 ;;      Totals:         2       0       0       0       0       0       0       0       0       0       0       0       
      +0       0       0       0       0
  7420 ;;Total ram usage:        2 bytes
  7421 ;; Hardware stack levels used: 1
  7422 ;; Hardware stack levels required when called: 2
  7423 ;; This function calls:
  7424 ;;		i2_I2C_SetBuffer
  7425 ;;		i2_I2C_SetDataCompleteCallback
  7426 ;; This function is called by:
  7427 ;;		_I2C_Read1ByteRegister
  7428 ;;		_I2C_DO_TX
  7429 ;;		_I2C_DO_RX
  7430 ;;		_I2C_DO_TX_EMPTY
  7431 ;;		_I2C_DO_ADDRESS_NACK
  7432 ;;		_I2C_DO_RX_EMPTY
  7433 ;; This function uses a non-reentrant model
  7434 ;;
  7435                           
  7436                           	psect	text87
  7437   002056                     __ptext87:
  7438                           	callstack 0
  7439   002056                     _rd1RegCompleteHandler:
  7440                           	callstack 17
  7441   002056                     
  7442                           ;mcc_generated_files/i2c_client/src/i2c_master_example.c: 150: static i2c_operations_t r
      +                          d1RegCompleteHandler(void *ptr);mcc_generated_files/i2c_client/src/i2c_master_example.c:
      +                           151: {;mcc_generated_files/i2c_client/src/i2c_master_example.c: 152:     I2C_SetBuffer(
      +                          ptr,1);
  7443   002056  C00A  F001         	movff	rd1RegCompleteHandler@ptr,i2I2C_SetBuffer@buffer
  7444   00205A  C00B  F002         	movff	rd1RegCompleteHandler@ptr+1,i2I2C_SetBuffer@buffer+1
  7445   00205E  0E00               	movlw	0
  7446   002060  6E04               	movwf	(i2I2C_SetBuffer@bufferSize+1)^0,c
  7447   002062  0E01               	movlw	1
  7448   002064  6E03               	movwf	i2I2C_SetBuffer@bufferSize^0,c
  7449   002066  EC7D  F010         	call	i2_I2C_SetBuffer	;wreg free
  7450   00206A                     
  7451                           ;mcc_generated_files/i2c_client/src/i2c_master_example.c: 153:     I2C_SetDataCompleteCa
      +                          llback(((void*)0),((void*)0));
  7452   00206A  0E00               	movlw	0
  7453   00206C  6E06               	movwf	i2I2C_SetDataCompleteCallback@cb^0,c
  7454   00206E  0E00               	movlw	0
  7455   002070  6E07               	movwf	(i2I2C_SetDataCompleteCallback@cb+1)^0,c
  7456   002072  0E00               	movlw	0
  7457   002074  6E08               	movwf	i2I2C_SetDataCompleteCallback@ptr^0,c
  7458   002076  0E00               	movlw	0
  7459   002078  6E09               	movwf	(i2I2C_SetDataCompleteCallback@ptr+1)^0,c
  7460   00207A  EC01  F011         	call	i2_I2C_SetDataCompleteCallback	;wreg free
  7461   00207E                     
  7462                           ;mcc_generated_files/i2c_client/src/i2c_master_example.c: 154:     return I2C_RESTART_RE
      +                          AD;
  7463   00207E  0E02               	movlw	2
  7464   002080  0012               	return		;funcret
  7465   002082                     __end_of_rd1RegCompleteHandler:
  7466                           	callstack 0
  7467                           
  7468 ;; *************** function _I2C_CallbackReturnReset *****************
  7469 ;; Defined at:
  7470 ;;		line 526 in file "mcc_generated_files/i2c_client/src/i2c_master.c"
  7471 ;; Parameters:    Size  Location     Type
  7472 ;;  funPtr          2    9[COMRAM] PTR void 
  7473 ;;		 -> I2C_ReadDataBlock@bufferBlock(4), I2C_Write2ByteRegister@data(2), I2C_Write1ByteRegister@data(1), I2C_Read2ByteR
      +egister@returnValue(2), 
  7474 ;;		 -> I2C_Read1ByteRegister@returnValue(1), NULL(0), 
  7475 ;; Auto vars:     Size  Location     Type
  7476 ;;		None
  7477 ;; Return value:  Size  Location     Type
  7478 ;;                  1    wreg      enum E363
  7479 ;; Registers used:
  7480 ;;		wreg
  7481 ;; Tracked objects:
  7482 ;;		On entry : 0/0
  7483 ;;		On exit  : 0/0
  7484 ;;		Unchanged: 0/0
  7485 ;; Data sizes:     COMRAM   BANK0   BANK1   BANK2   BANK3   BANK4   BANK5   BANK6   BANK7   BANK8   BANK9  BANK10  BANK1
      +1  BANK12  BANK13  BANK14  BANK15
  7486 ;;      Params:         2       0       0       0       0       0       0       0       0       0       0       0       
      +0       0       0       0       0
  7487 ;;      Locals:         0       0       0       0       0       0       0       0       0       0       0       0       
      +0       0       0       0       0
  7488 ;;      Temps:          0       0       0       0       0       0       0       0       0       0       0       0       
      +0       0       0       0       0
  7489 ;;      Totals:         2       0       0       0       0       0       0       0       0       0       0       0       
      +0       0       0       0       0
  7490 ;;Total ram usage:        2 bytes
  7491 ;; Hardware stack levels used: 1
  7492 ;; This function calls:
  7493 ;;		Nothing
  7494 ;; This function is called by:
  7495 ;;		_I2C_Open
  7496 ;;		_I2C_DO_TX
  7497 ;;		_I2C_DO_RX
  7498 ;;		_I2C_DO_TX_EMPTY
  7499 ;;		_I2C_DO_ADDRESS_NACK
  7500 ;;		_I2C_DO_RX_EMPTY
  7501 ;; This function uses a non-reentrant model
  7502 ;;
  7503                           
  7504                           	psect	text88
  7505   0023B6                     __ptext88:
  7506                           	callstack 0
  7507   0023B6                     _I2C_CallbackReturnReset:
  7508                           	callstack 19
  7509   0023B6                     
  7510                           ;mcc_generated_files/i2c_client/src/i2c_master.c: 526: i2c_operations_t I2C_CallbackRetu
      +                          rnReset(void *funPtr);mcc_generated_files/i2c_client/src/i2c_master.c: 527: {;mcc_genera
      +                          ted_files/i2c_client/src/i2c_master.c: 528:     return I2C_RESET_LINK;
  7511   0023B6  0E05               	movlw	5
  7512   0023B8  0012               	return		;funcret
  7513   0023BA                     __end_of_I2C_CallbackReturnReset:
  7514                           	callstack 0
  7515                           
  7516 ;; *************** function _I2C_CallbackReturnStop *****************
  7517 ;; Defined at:
  7518 ;;		line 521 in file "mcc_generated_files/i2c_client/src/i2c_master.c"
  7519 ;; Parameters:    Size  Location     Type
  7520 ;;  funPtr          2    9[COMRAM] PTR void 
  7521 ;;		 -> I2C_ReadDataBlock@bufferBlock(4), I2C_Write2ByteRegister@data(2), I2C_Write1ByteRegister@data(1), I2C_Read2ByteR
      +egister@returnValue(2), 
  7522 ;;		 -> I2C_Read1ByteRegister@returnValue(1), NULL(0), 
  7523 ;; Auto vars:     Size  Location     Type
  7524 ;;		None
  7525 ;; Return value:  Size  Location     Type
  7526 ;;                  1    wreg      enum E363
  7527 ;; Registers used:
  7528 ;;		wreg
  7529 ;; Tracked objects:
  7530 ;;		On entry : 0/0
  7531 ;;		On exit  : 0/0
  7532 ;;		Unchanged: 0/0
  7533 ;; Data sizes:     COMRAM   BANK0   BANK1   BANK2   BANK3   BANK4   BANK5   BANK6   BANK7   BANK8   BANK9  BANK10  BANK1
      +1  BANK12  BANK13  BANK14  BANK15
  7534 ;;      Params:         2       0       0       0       0       0       0       0       0       0       0       0       
      +0       0       0       0       0
  7535 ;;      Locals:         0       0       0       0       0       0       0       0       0       0       0       0       
      +0       0       0       0       0
  7536 ;;      Temps:          0       0       0       0       0       0       0       0       0       0       0       0       
      +0       0       0       0       0
  7537 ;;      Totals:         2       0       0       0       0       0       0       0       0       0       0       0       
      +0       0       0       0       0
  7538 ;;Total ram usage:        2 bytes
  7539 ;; Hardware stack levels used: 1
  7540 ;; This function calls:
  7541 ;;		Nothing
  7542 ;; This function is called by:
  7543 ;;		_I2C_Open
  7544 ;;		_I2C_SetCallback
  7545 ;;		i2_I2C_SetCallback
  7546 ;;		_I2C_DO_TX
  7547 ;;		_I2C_DO_RX
  7548 ;;		_I2C_DO_TX_EMPTY
  7549 ;;		_I2C_DO_ADDRESS_NACK
  7550 ;;		_I2C_DO_RX_EMPTY
  7551 ;; This function uses a non-reentrant model
  7552 ;;
  7553                           
  7554                           	psect	text89
  7555   0023BA                     __ptext89:
  7556                           	callstack 0
  7557   0023BA                     _I2C_CallbackReturnStop:
  7558                           	callstack 19
  7559   0023BA                     
  7560                           ;mcc_generated_files/i2c_client/src/i2c_master.c: 521: i2c_operations_t I2C_CallbackRetu
      +                          rnStop(void *funPtr);mcc_generated_files/i2c_client/src/i2c_master.c: 522: {;mcc_generat
      +                          ed_files/i2c_client/src/i2c_master.c: 523:     return I2C_STOP;
  7561   0023BA  0E01               	movlw	1
  7562   0023BC  0012               	return		;funcret
  7563   0023BE                     __end_of_I2C_CallbackReturnStop:
  7564                           	callstack 0
  7565                           
  7566 ;; *************** function _wr2RegCompleteHandler *****************
  7567 ;; Defined at:
  7568 ;;		line 171 in file "mcc_generated_files/i2c_client/src/i2c_master_example.c"
  7569 ;; Parameters:    Size  Location     Type
  7570 ;;  ptr             2    9[COMRAM] PTR void 
  7571 ;;		 -> I2C_ReadDataBlock@bufferBlock(4), I2C_Write2ByteRegister@data(2), I2C_Write1ByteRegister@data(1), I2C_Read2ByteR
      +egister@returnValue(2), 
  7572 ;;		 -> I2C_Read1ByteRegister@returnValue(1), NULL(0), 
  7573 ;; Auto vars:     Size  Location     Type
  7574 ;;		None
  7575 ;; Return value:  Size  Location     Type
  7576 ;;                  1    wreg      enum E363
  7577 ;; Registers used:
  7578 ;;		wreg, fsr2l, fsr2h, status,2, status,0, prodl, prodh, cstack
  7579 ;; Tracked objects:
  7580 ;;		On entry : 0/0
  7581 ;;		On exit  : 0/0
  7582 ;;		Unchanged: 0/0
  7583 ;; Data sizes:     COMRAM   BANK0   BANK1   BANK2   BANK3   BANK4   BANK5   BANK6   BANK7   BANK8   BANK9  BANK10  BANK1
      +1  BANK12  BANK13  BANK14  BANK15
  7584 ;;      Params:         2       0       0       0       0       0       0       0       0       0       0       0       
      +0       0       0       0       0
  7585 ;;      Locals:         0       0       0       0       0       0       0       0       0       0       0       0       
      +0       0       0       0       0
  7586 ;;      Temps:          0       0       0       0       0       0       0       0       0       0       0       0       
      +0       0       0       0       0
  7587 ;;      Totals:         2       0       0       0       0       0       0       0       0       0       0       0       
      +0       0       0       0       0
  7588 ;;Total ram usage:        2 bytes
  7589 ;; Hardware stack levels used: 1
  7590 ;; Hardware stack levels required when called: 2
  7591 ;; This function calls:
  7592 ;;		i2_I2C_SetBuffer
  7593 ;;		i2_I2C_SetDataCompleteCallback
  7594 ;; This function is called by:
  7595 ;;		_I2C_Write2ByteRegister
  7596 ;;		_I2C_DO_TX
  7597 ;;		_I2C_DO_RX
  7598 ;;		_I2C_DO_TX_EMPTY
  7599 ;;		_I2C_DO_ADDRESS_NACK
  7600 ;;		_I2C_DO_RX_EMPTY
  7601 ;; This function uses a non-reentrant model
  7602 ;;
  7603                           
  7604                           	psect	text90
  7605   002082                     __ptext90:
  7606                           	callstack 0
  7607   002082                     _wr2RegCompleteHandler:
  7608                           	callstack 17
  7609   002082                     
  7610                           ;mcc_generated_files/i2c_client/src/i2c_master_example.c: 171: static i2c_operations_t w
      +                          r2RegCompleteHandler(void *ptr);mcc_generated_files/i2c_client/src/i2c_master_example.c:
      +                           172: {;mcc_generated_files/i2c_client/src/i2c_master_example.c: 173:     I2C_SetBuffer(
      +                          ptr,2);
  7611   002082  C00A  F001         	movff	wr2RegCompleteHandler@ptr,i2I2C_SetBuffer@buffer
  7612   002086  C00B  F002         	movff	wr2RegCompleteHandler@ptr+1,i2I2C_SetBuffer@buffer+1
  7613   00208A  0E00               	movlw	0
  7614   00208C  6E04               	movwf	(i2I2C_SetBuffer@bufferSize+1)^0,c
  7615   00208E  0E02               	movlw	2
  7616   002090  6E03               	movwf	i2I2C_SetBuffer@bufferSize^0,c
  7617   002092  EC7D  F010         	call	i2_I2C_SetBuffer	;wreg free
  7618   002096                     
  7619                           ;mcc_generated_files/i2c_client/src/i2c_master_example.c: 174:     I2C_SetDataCompleteCa
      +                          llback(((void*)0),((void*)0));
  7620   002096  0E00               	movlw	0
  7621   002098  6E06               	movwf	i2I2C_SetDataCompleteCallback@cb^0,c
  7622   00209A  0E00               	movlw	0
  7623   00209C  6E07               	movwf	(i2I2C_SetDataCompleteCallback@cb+1)^0,c
  7624   00209E  0E00               	movlw	0
  7625   0020A0  6E08               	movwf	i2I2C_SetDataCompleteCallback@ptr^0,c
  7626   0020A2  0E00               	movlw	0
  7627   0020A4  6E09               	movwf	(i2I2C_SetDataCompleteCallback@ptr+1)^0,c
  7628   0020A6  EC01  F011         	call	i2_I2C_SetDataCompleteCallback	;wreg free
  7629   0020AA                     
  7630                           ;mcc_generated_files/i2c_client/src/i2c_master_example.c: 175:     return I2C_CONTINUE;
  7631   0020AA  0E04               	movlw	4
  7632   0020AC  0012               	return		;funcret
  7633   0020AE                     __end_of_wr2RegCompleteHandler:
  7634                           	callstack 0
  7635                           
  7636 ;; *************** function i2_I2C_SetDataCompleteCallback *****************
  7637 ;; Defined at:
  7638 ;;		line 274 in file "mcc_generated_files/i2c_client/src/i2c_master.c"
  7639 ;; Parameters:    Size  Location     Type
  7640 ;;  cb              2    5[COMRAM] PTR FTN(PTR void ,)enum 
  7641 ;;		 -> rdBlkRegCompleteHandler(1), wr2RegCompleteHandler(1), wr1RegCompleteHandler(1), rd2RegCompleteHandler(1), 
  7642 ;;		 -> rd1RegCompleteHandler(1), NULL(1), 
  7643 ;;  ptr             2    7[COMRAM] PTR void 
  7644 ;;		 -> I2C_ReadDataBlock@bufferBlock(4), I2C_Write2ByteRegister@data(2), I2C_Write1ByteRegister@data(1), I2C_Read2ByteR
      +egister@returnValue(2), 
  7645 ;;		 -> I2C_Read1ByteRegister@returnValue(1), NULL(0), 
  7646 ;; Auto vars:     Size  Location     Type
  7647 ;;		None
  7648 ;; Return value:  Size  Location     Type
  7649 ;;                  1    wreg      void 
  7650 ;; Registers used:
  7651 ;;		wreg, fsr2l, fsr2h, status,2, status,0, prodl, prodh, cstack
  7652 ;; Tracked objects:
  7653 ;;		On entry : 0/0
  7654 ;;		On exit  : 0/0
  7655 ;;		Unchanged: 0/0
  7656 ;; Data sizes:     COMRAM   BANK0   BANK1   BANK2   BANK3   BANK4   BANK5   BANK6   BANK7   BANK8   BANK9  BANK10  BANK1
      +1  BANK12  BANK13  BANK14  BANK15
  7657 ;;      Params:         4       0       0       0       0       0       0       0       0       0       0       0       
      +0       0       0       0       0
  7658 ;;      Locals:         0       0       0       0       0       0       0       0       0       0       0       0       
      +0       0       0       0       0
  7659 ;;      Temps:          0       0       0       0       0       0       0       0       0       0       0       0       
      +0       0       0       0       0
  7660 ;;      Totals:         4       0       0       0       0       0       0       0       0       0       0       0       
      +0       0       0       0       0
  7661 ;;Total ram usage:        4 bytes
  7662 ;; Hardware stack levels used: 1
  7663 ;; Hardware stack levels required when called: 1
  7664 ;; This function calls:
  7665 ;;		i2_I2C_SetCallback
  7666 ;; This function is called by:
  7667 ;;		_rd1RegCompleteHandler
  7668 ;;		_rd2RegCompleteHandler
  7669 ;;		_wr1RegCompleteHandler
  7670 ;;		_wr2RegCompleteHandler
  7671 ;;		_rdBlkRegCompleteHandler
  7672 ;; This function uses a non-reentrant model
  7673 ;;
  7674                           
  7675                           	psect	text91
  7676   002202                     __ptext91:
  7677                           	callstack 0
  7678   002202                     i2_I2C_SetDataCompleteCallback:
  7679                           	callstack 17
  7680   002202                     
  7681                           ;mcc_generated_files/i2c_client/src/i2c_master.c: 274: void I2C_SetDataCompleteCallback(
      +                          i2c_callback_t cb, void *ptr);mcc_generated_files/i2c_client/src/i2c_master.c: 275: {;mc
      +                          c_generated_files/i2c_client/src/i2c_master.c: 276:     I2C_SetCallback(I2C_DATA_COMPLET
      +                          E, cb, ptr);
  7682   002202  C006  F001         	movff	i2I2C_SetDataCompleteCallback@cb,i2I2C_SetCallback@cb
  7683   002206  C007  F002         	movff	i2I2C_SetDataCompleteCallback@cb+1,i2I2C_SetCallback@cb+1
  7684   00220A  C008  F003         	movff	i2I2C_SetDataCompleteCallback@ptr,i2I2C_SetCallback@ptr
  7685   00220E  C009  F004         	movff	i2I2C_SetDataCompleteCallback@ptr+1,i2I2C_SetCallback@ptr+1
  7686   002212  0E00               	movlw	0
  7687   002214  EC31  F00E         	call	i2_I2C_SetCallback
  7688   002218  0012               	return		;funcret
  7689   00221A                     __end_ofi2_I2C_SetDataCompleteCallback:
  7690                           	callstack 0
  7691                           
  7692 ;; *************** function i2_I2C_SetCallback *****************
  7693 ;; Defined at:
  7694 ;;		line 304 in file "mcc_generated_files/i2c_client/src/i2c_master.c"
  7695 ;; Parameters:    Size  Location     Type
  7696 ;;  idx             1    wreg     enum E3152
  7697 ;;  cb              2    0[COMRAM] PTR FTN(PTR void ,)enum 
  7698 ;;		 -> rdBlkRegCompleteHandler(1), wr2RegCompleteHandler(1), wr1RegCompleteHandler(1), rd2RegCompleteHandler(1), 
  7699 ;;		 -> rd1RegCompleteHandler(1), NULL(1), 
  7700 ;;  ptr             2    2[COMRAM] PTR void 
  7701 ;;		 -> I2C_ReadDataBlock@bufferBlock(4), I2C_Write2ByteRegister@data(2), I2C_Write1ByteRegister@data(1), I2C_Read2ByteR
      +egister@returnValue(2), 
  7702 ;;		 -> I2C_Read1ByteRegister@returnValue(1), NULL(0), 
  7703 ;; Auto vars:     Size  Location     Type
  7704 ;;  idx             1    4[COMRAM] enum E3152
  7705 ;; Return value:  Size  Location     Type
  7706 ;;                  1    wreg      void 
  7707 ;; Registers used:
  7708 ;;		wreg, fsr2l, fsr2h, status,2, status,0, prodl, prodh
  7709 ;; Tracked objects:
  7710 ;;		On entry : 0/0
  7711 ;;		On exit  : 0/0
  7712 ;;		Unchanged: 0/0
  7713 ;; Data sizes:     COMRAM   BANK0   BANK1   BANK2   BANK3   BANK4   BANK5   BANK6   BANK7   BANK8   BANK9  BANK10  BANK1
      +1  BANK12  BANK13  BANK14  BANK15
  7714 ;;      Params:         4       0       0       0       0       0       0       0       0       0       0       0       
      +0       0       0       0       0
  7715 ;;      Locals:         1       0       0       0       0       0       0       0       0       0       0       0       
      +0       0       0       0       0
  7716 ;;      Temps:          0       0       0       0       0       0       0       0       0       0       0       0       
      +0       0       0       0       0
  7717 ;;      Totals:         5       0       0       0       0       0       0       0       0       0       0       0       
      +0       0       0       0       0
  7718 ;;Total ram usage:        5 bytes
  7719 ;; Hardware stack levels used: 1
  7720 ;; This function calls:
  7721 ;;		Nothing
  7722 ;; This function is called by:
  7723 ;;		i2_I2C_SetDataCompleteCallback
  7724 ;; This function uses a non-reentrant model
  7725 ;;
  7726                           
  7727                           	psect	text92
  7728   001C62                     __ptext92:
  7729                           	callstack 0
  7730   001C62                     i2_I2C_SetCallback:
  7731                           	callstack 17
  7732                           
  7733                           ;incstack = 0
  7734                           ;i2I2C_SetCallback@idx stored from wreg
  7735   001C62  6E05               	movwf	i2I2C_SetCallback@idx^0,c
  7736   001C64                     
  7737                           ;mcc_generated_files/i2c_client/src/i2c_master.c: 304: static void I2C_SetCallback(i2c_c
      +                          allbackIndex_t idx, i2c_callback_t cb, void *ptr);mcc_generated_files/i2c_client/src/i2c
      +                          _master.c: 305: {;mcc_generated_files/i2c_client/src/i2c_master.c: 306:     if(cb)
  7738   001C64  5001               	movf	i2I2C_SetCallback@cb^0,w,c
  7739   001C66  1002               	iorwf	(i2I2C_SetCallback@cb+1)^0,w,c
  7740   001C68  B4D8               	btfsc	status,2,c
  7741   001C6A  EF39  F00E         	goto	i2u137_41
  7742   001C6E  EF3B  F00E         	goto	i2u137_40
  7743   001C72                     i2u137_41:
  7744   001C72  EF51  F00E         	goto	i2l3190
  7745   001C76                     i2u137_40:
  7746   001C76                     
  7747                           ;mcc_generated_files/i2c_client/src/i2c_master.c: 307:     {;mcc_generated_files/i2c_cli
      +                          ent/src/i2c_master.c: 308:         I2C_Status.callbackTable[idx] = cb;
  7748   001C76  5005               	movf	i2I2C_SetCallback@idx^0,w,c
  7749   001C78  0D02               	mullw	2
  7750   001C7A  50F3               	movf	243,w,c
  7751   001C7C  0F60               	addlw	low _I2C_Status
  7752   001C7E  6ED9               	movwf	fsr2l,c
  7753   001C80  6ADA               	clrf	fsr2h,c
  7754   001C82  C001  FFDE         	movff	i2I2C_SetCallback@cb,postinc2
  7755   001C86  C002  FFDD         	movff	i2I2C_SetCallback@cb+1,postdec2
  7756                           
  7757                           ;mcc_generated_files/i2c_client/src/i2c_master.c: 309:         I2C_Status.callbackPayloa
      +                          d[idx] = ptr;
  7758   001C8A  5005               	movf	i2I2C_SetCallback@idx^0,w,c
  7759   001C8C  0D02               	mullw	2
  7760   001C8E  50F3               	movf	243,w,c
  7761   001C90  0F6C               	addlw	low (_I2C_Status+12)
  7762   001C92  6ED9               	movwf	fsr2l,c
  7763   001C94  6ADA               	clrf	fsr2h,c
  7764   001C96  C003  FFDE         	movff	i2I2C_SetCallback@ptr,postinc2
  7765   001C9A  C004  FFDD         	movff	i2I2C_SetCallback@ptr+1,postdec2
  7766                           
  7767                           ;mcc_generated_files/i2c_client/src/i2c_master.c: 310:     }
  7768   001C9E  EF63  F00E         	goto	i2l210
  7769   001CA2                     i2l3190:
  7770                           
  7771                           ;mcc_generated_files/i2c_client/src/i2c_master.c: 312:     {;mcc_generated_files/i2c_cli
      +                          ent/src/i2c_master.c: 313:         I2C_Status.callbackTable[idx] = I2C_CallbackReturnSto
      +                          p;
  7772   001CA2  5005               	movf	i2I2C_SetCallback@idx^0,w,c
  7773   001CA4  0D02               	mullw	2
  7774   001CA6  50F3               	movf	243,w,c
  7775   001CA8  0F60               	addlw	low _I2C_Status
  7776   001CAA  6ED9               	movwf	fsr2l,c
  7777   001CAC  6ADA               	clrf	fsr2h,c
  7778   001CAE  0EBA               	movlw	low _I2C_CallbackReturnStop
  7779   001CB0  6EDE               	movwf	postinc2,c
  7780   001CB2  0E23               	movlw	high _I2C_CallbackReturnStop
  7781   001CB4  6EDD               	movwf	postdec2,c
  7782                           
  7783                           ;mcc_generated_files/i2c_client/src/i2c_master.c: 314:         I2C_Status.callbackPayloa
      +                          d[idx] = ((void*)0);
  7784   001CB6  5005               	movf	i2I2C_SetCallback@idx^0,w,c
  7785   001CB8  0D02               	mullw	2
  7786   001CBA  50F3               	movf	243,w,c
  7787   001CBC  0F6C               	addlw	low (_I2C_Status+12)
  7788   001CBE  6ED9               	movwf	fsr2l,c
  7789   001CC0  6ADA               	clrf	fsr2h,c
  7790   001CC2  6ADE               	clrf	postinc2,c
  7791   001CC4  6ADD               	clrf	postdec2,c
  7792   001CC6                     i2l210:
  7793   001CC6  0012               	return		;funcret
  7794   001CC8                     __end_ofi2_I2C_SetCallback:
  7795                           	callstack 0
  7796                           
  7797 ;; *************** function i2_I2C_SetBuffer *****************
  7798 ;; Defined at:
  7799 ;;		line 264 in file "mcc_generated_files/i2c_client/src/i2c_master.c"
  7800 ;; Parameters:    Size  Location     Type
  7801 ;;  buffer          2    0[COMRAM] PTR void 
  7802 ;;		 -> I2C_Read1ByteRegister@returnValue$data(3), I2C_Read2ByteRegister@returnValue$data(3), I2C_Write1ByteRegister@dat
      +a$data(3), I2C_Write2ByteRegister@data$data(3), 
  7803 ;;		 -> I2C_ReadDataBlock@reg(1), I2C_ReadDataBlock@bufferBlock(4), bufferBlock$data(3), I2C_Write2ByteRegister@reg(1), 
  7804 ;;		 -> I2C_Write2ByteRegister@data(2), I2C_Write1Byte@reg(1), I2C_Write1ByteRegister@reg(1), I2C_Write1ByteRegister@dat
      +a(1), 
  7805 ;;		 -> I2C_Read2ByteRegister@reg(1), I2C_Read2ByteRegister@returnValue(2), I2C_Read1ByteRegister@reg(1), I2C_Read1ByteR
      +egister@returnValue(1), 
  7806 ;;		 -> NULL(0), 
  7807 ;;  bufferSize      2    2[COMRAM] unsigned int 
  7808 ;; Auto vars:     Size  Location     Type
  7809 ;;		None
  7810 ;; Return value:  Size  Location     Type
  7811 ;;                  1    wreg      void 
  7812 ;; Registers used:
  7813 ;;		wreg, status,2, status,0
  7814 ;; Tracked objects:
  7815 ;;		On entry : 0/0
  7816 ;;		On exit  : 0/0
  7817 ;;		Unchanged: 0/0
  7818 ;; Data sizes:     COMRAM   BANK0   BANK1   BANK2   BANK3   BANK4   BANK5   BANK6   BANK7   BANK8   BANK9  BANK10  BANK1
      +1  BANK12  BANK13  BANK14  BANK15
  7819 ;;      Params:         4       0       0       0       0       0       0       0       0       0       0       0       
      +0       0       0       0       0
  7820 ;;      Locals:         0       0       0       0       0       0       0       0       0       0       0       0       
      +0       0       0       0       0
  7821 ;;      Temps:          0       0       0       0       0       0       0       0       0       0       0       0       
      +0       0       0       0       0
  7822 ;;      Totals:         4       0       0       0       0       0       0       0       0       0       0       0       
      +0       0       0       0       0
  7823 ;;Total ram usage:        4 bytes
  7824 ;; Hardware stack levels used: 1
  7825 ;; This function calls:
  7826 ;;		Nothing
  7827 ;; This function is called by:
  7828 ;;		_rd1RegCompleteHandler
  7829 ;;		_rd2RegCompleteHandler
  7830 ;;		_wr1RegCompleteHandler
  7831 ;;		_wr2RegCompleteHandler
  7832 ;;		_rdBlkRegCompleteHandler
  7833 ;; This function uses a non-reentrant model
  7834 ;;
  7835                           
  7836                           	psect	text93
  7837   0020FA                     __ptext93:
  7838                           	callstack 0
  7839   0020FA                     i2_I2C_SetBuffer:
  7840                           	callstack 18
  7841   0020FA                     
  7842                           ;mcc_generated_files/i2c_client/src/i2c_master.c: 264: void I2C_SetBuffer(void *buffer, 
      +                          size_t bufferSize);mcc_generated_files/i2c_client/src/i2c_master.c: 265: {;mcc_generated
      +                          _files/i2c_client/src/i2c_master.c: 266:     if(I2C_Status.bufferFree)
  7843   0020FA  0100               	movlb	0	; () banked
  7844   0020FC  A783               	btfss	(_I2C_Status+35)& (0+255),3,b
  7845   0020FE  EF83  F010         	goto	i2u157_41
  7846   002102  EF85  F010         	goto	i2u157_40
  7847   002106                     i2u157_41:
  7848   002106  EF8E  F010         	goto	i2l187
  7849   00210A                     i2u157_40:
  7850   00210A                     
  7851                           ; BSR set to: 0
  7852                           ;mcc_generated_files/i2c_client/src/i2c_master.c: 267:     {;mcc_generated_files/i2c_cli
      +                          ent/src/i2c_master.c: 268:         I2C_Status.data_ptr = buffer;
  7853   00210A  C001  F07D         	movff	i2I2C_SetBuffer@buffer,_I2C_Status+29
  7854   00210E  C002  F07E         	movff	i2I2C_SetBuffer@buffer+1,_I2C_Status+30
  7855   002112                     
  7856                           ; BSR set to: 0
  7857                           ;mcc_generated_files/i2c_client/src/i2c_master.c: 269:         I2C_Status.data_length = 
      +                          bufferSize;
  7858   002112  C003  F07F         	movff	i2I2C_SetBuffer@bufferSize,_I2C_Status+31
  7859   002116  C004  F080         	movff	i2I2C_SetBuffer@bufferSize+1,_I2C_Status+32
  7860   00211A                     
  7861                           ; BSR set to: 0
  7862                           ;mcc_generated_files/i2c_client/src/i2c_master.c: 270:         I2C_Status.bufferFree = 0
      +                          ;
  7863   00211A  9783               	bcf	(_I2C_Status+35)& (0+255),3,b
  7864   00211C                     i2l187:
  7865                           
  7866                           ; BSR set to: 0
  7867   00211C  0012               	return		;funcret
  7868   00211E                     __end_ofi2_I2C_SetBuffer:
  7869                           	callstack 0
  7870                           
  7871 ;; *************** function _I2C_MasterStop *****************
  7872 ;; Defined at:
  7873 ;;		line 594 in file "mcc_generated_files/i2c_client/src/i2c_master.c"
  7874 ;; Parameters:    Size  Location     Type
  7875 ;;		None
  7876 ;; Auto vars:     Size  Location     Type
  7877 ;;		None
  7878 ;; Return value:  Size  Location     Type
  7879 ;;                  1    wreg      void 
  7880 ;; Registers used:
  7881 ;;		None
  7882 ;; Tracked objects:
  7883 ;;		On entry : 0/0
  7884 ;;		On exit  : 0/0
  7885 ;;		Unchanged: 0/0
  7886 ;; Data sizes:     COMRAM   BANK0   BANK1   BANK2   BANK3   BANK4   BANK5   BANK6   BANK7   BANK8   BANK9  BANK10  BANK1
      +1  BANK12  BANK13  BANK14  BANK15
  7887 ;;      Params:         0       0       0       0       0       0       0       0       0       0       0       0       
      +0       0       0       0       0
  7888 ;;      Locals:         0       0       0       0       0       0       0       0       0       0       0       0       
      +0       0       0       0       0
  7889 ;;      Temps:          0       0       0       0       0       0       0       0       0       0       0       0       
      +0       0       0       0       0
  7890 ;;      Totals:         0       0       0       0       0       0       0       0       0       0       0       0       
      +0       0       0       0       0
  7891 ;;Total ram usage:        0 bytes
  7892 ;; Hardware stack levels used: 1
  7893 ;; This function calls:
  7894 ;;		Nothing
  7895 ;; This function is called by:
  7896 ;;		_I2C_DO_SEND_STOP
  7897 ;; This function uses a non-reentrant model
  7898 ;;
  7899                           
  7900                           	psect	text94
  7901   0023BE                     __ptext94:
  7902                           	callstack 0
  7903   0023BE                     _I2C_MasterStop:
  7904                           	callstack 18
  7905   0023BE                     
  7906                           ;mcc_generated_files/i2c_client/src/i2c_master.c: 596:     SSPCON2bits.PEN = 1;
  7907   0023BE  84C5               	bsf	197,2,c	;volatile
  7908   0023C0  0012               	return		;funcret
  7909   0023C2                     __end_of_I2C_MasterStop:
  7910                           	callstack 0
  7911                           
  7912 ;; *************** function _I2C_MasterEnableRestart *****************
  7913 ;; Defined at:
  7914 ;;		line 574 in file "mcc_generated_files/i2c_client/src/i2c_master.c"
  7915 ;; Parameters:    Size  Location     Type
  7916 ;;		None
  7917 ;; Auto vars:     Size  Location     Type
  7918 ;;		None
  7919 ;; Return value:  Size  Location     Type
  7920 ;;                  1    wreg      void 
  7921 ;; Registers used:
  7922 ;;		None
  7923 ;; Tracked objects:
  7924 ;;		On entry : 0/0
  7925 ;;		On exit  : 0/0
  7926 ;;		Unchanged: 0/0
  7927 ;; Data sizes:     COMRAM   BANK0   BANK1   BANK2   BANK3   BANK4   BANK5   BANK6   BANK7   BANK8   BANK9  BANK10  BANK1
      +1  BANK12  BANK13  BANK14  BANK15
  7928 ;;      Params:         0       0       0       0       0       0       0       0       0       0       0       0       
      +0       0       0       0       0
  7929 ;;      Locals:         0       0       0       0       0       0       0       0       0       0       0       0       
      +0       0       0       0       0
  7930 ;;      Temps:          0       0       0       0       0       0       0       0       0       0       0       0       
      +0       0       0       0       0
  7931 ;;      Totals:         0       0       0       0       0       0       0       0       0       0       0       0       
      +0       0       0       0       0
  7932 ;;Total ram usage:        0 bytes
  7933 ;; Hardware stack levels used: 1
  7934 ;; This function calls:
  7935 ;;		Nothing
  7936 ;; This function is called by:
  7937 ;;		_I2C_DO_SEND_RESTART_READ
  7938 ;;		_I2C_DO_SEND_RESTART_WRITE
  7939 ;;		_I2C_DO_SEND_RESTART
  7940 ;;		_I2C_DO_RX_EMPTY
  7941 ;; This function uses a non-reentrant model
  7942 ;;
  7943                           
  7944                           	psect	text95
  7945   0023C2                     __ptext95:
  7946                           	callstack 0
  7947   0023C2                     _I2C_MasterEnableRestart:
  7948                           	callstack 18
  7949   0023C2                     
  7950                           ;mcc_generated_files/i2c_client/src/i2c_master.c: 576:     SSPCON2bits.RSEN = 1;
  7951   0023C2  82C5               	bsf	197,1,c	;volatile
  7952   0023C4  0012               	return		;funcret
  7953   0023C6                     __end_of_I2C_MasterEnableRestart:
  7954                           	callstack 0
  7955                           
  7956                           	psect	text96
  7957   000000                     __ptext96:
  7958                           	callstack 0
  7959   000000                     
  7960                           	psect	rparam
  7961   000000                     
  7962                           	psect	temp
  7963   00005D                     btemp:
  7964                           	callstack 0
  7965   00005D                     	ds	1
  7966   000000                     int$flags	set	btemp
  7967   000000                     wtemp8	set	btemp+1
  7968   000000                     ttemp5	set	btemp+1
  7969   000000                     ttemp6	set	btemp+4
  7970   000000                     ttemp7	set	btemp+8
  7971                           
  7972                           	psect	config
  7973                           
  7974                           ; Padding undefined space
  7975   300000                     	org	3145728
  7976   300000  FF                 	db	255
  7977                           
  7978                           ;Config register CONFIG1H @ 0x300001
  7979                           ;	Oscillator Selection bits
  7980                           ;	FOSC = HS, HS oscillator
  7981                           ;	Fail-Safe Clock Monitor Enable bit
  7982                           ;	FCMEN = OFF, Fail-Safe Clock Monitor disabled
  7983                           ;	Internal/External Oscillator Switchover bit
  7984                           ;	IESO = OFF, Oscillator Switchover mode disabled
  7985   300001                     	org	3145729
  7986   300001  02                 	db	2
  7987                           
  7988                           ;Config register CONFIG2L @ 0x300002
  7989                           ;	Power-up Timer Enable bit
  7990                           ;	PWRTEN = OFF, PWRT disabled
  7991                           ;	Brown-out Reset Enable bits
  7992                           ;	BOREN = SBORDIS, Brown-out Reset enabled in hardware only (SBOREN is disabled)
  7993                           ;	Brown Out Reset Voltage bits
  7994                           ;	BORV = 18, VBOR set to 1.8 V nominal
  7995   300002                     	org	3145730
  7996   300002  1F                 	db	31
  7997                           
  7998                           ;Config register CONFIG2H @ 0x300003
  7999                           ;	Watchdog Timer Enable bit
  8000                           ;	WDTEN = OFF, WDT is controlled by SWDTEN bit of the WDTCON register
  8001                           ;	Watchdog Timer Postscale Select bits
  8002                           ;	WDTPS = 32768, 1:32768
  8003   300003                     	org	3145731
  8004   300003  1E                 	db	30
  8005                           
  8006                           ; Padding undefined space
  8007   300004                     	org	3145732
  8008   300004  FF                 	db	255
  8009                           
  8010                           ;Config register CONFIG3H @ 0x300005
  8011                           ;	CCP2 MUX bit
  8012                           ;	CCP2MX = PORTC, CCP2 input/output is multiplexed with RC1
  8013                           ;	PORTB A/D Enable bit
  8014                           ;	PBADEN = ON, PORTB<4:0> pins are configured as analog input channels on Reset
  8015                           ;	Low-Power Timer1 Oscillator Enable bit
  8016                           ;	LPT1OSC = OFF, Timer1 configured for higher power operation
  8017                           ;	HFINTOSC Fast Start-up
  8018                           ;	HFOFST = ON, HFINTOSC starts clocking the CPU without waiting for the oscillator to st
      +                          ablize.
  8019                           ;	MCLR Pin Enable bit
  8020                           ;	MCLRE = ON, MCLR pin enabled; RE3 input pin disabled
  8021   300005                     	org	3145733
  8022   300005  8B                 	db	139
  8023                           
  8024                           ;Config register CONFIG4L @ 0x300006
  8025                           ;	Stack Full/Underflow Reset Enable bit
  8026                           ;	STVREN = ON, Stack full/underflow will cause Reset
  8027                           ;	Single-Supply ICSP Enable bit
  8028                           ;	LVP = ON, Single-Supply ICSP enabled
  8029                           ;	Extended Instruction Set Enable bit
  8030                           ;	XINST = OFF, Instruction set extension and Indexed Addressing mode disabled (Legacy mo
      +                          de)
  8031                           ;	Background Debugger Enable bit
  8032                           ;	DEBUG = 0x1, unprogrammed default
  8033   300006                     	org	3145734
  8034   300006  85                 	db	133
  8035                           
  8036                           ; Padding undefined space
  8037   300007                     	org	3145735
  8038   300007  FF                 	db	255
  8039                           
  8040                           ;Config register CONFIG5L @ 0x300008
  8041                           ;	Code Protection Block 0
  8042                           ;	CP0 = OFF, Block 0 (000800-003FFFh) not code-protected
  8043                           ;	Code Protection Block 1
  8044                           ;	CP1 = OFF, Block 1 (004000-007FFFh) not code-protected
  8045                           ;	Code Protection Block 2
  8046                           ;	CP2 = OFF, Block 2 (008000-00BFFFh) not code-protected
  8047                           ;	Code Protection Block 3
  8048                           ;	CP3 = OFF, Block 3 (00C000-00FFFFh) not code-protected
  8049   300008                     	org	3145736
  8050   300008  0F                 	db	15
  8051                           
  8052                           ;Config register CONFIG5H @ 0x300009
  8053                           ;	Boot Block Code Protection bit
  8054                           ;	CPB = OFF, Boot block (000000-0007FFh) not code-protected
  8055                           ;	Data EEPROM Code Protection bit
  8056                           ;	CPD = OFF, Data EEPROM not code-protected
  8057   300009                     	org	3145737
  8058   300009  C0                 	db	192
  8059                           
  8060                           ;Config register CONFIG6L @ 0x30000A
  8061                           ;	Write Protection Block 0
  8062                           ;	WRT0 = OFF, Block 0 (000800-003FFFh) not write-protected
  8063                           ;	Write Protection Block 1
  8064                           ;	WRT1 = OFF, Block 1 (004000-007FFFh) not write-protected
  8065                           ;	Write Protection Block 2
  8066                           ;	WRT2 = OFF, Block 2 (008000-00BFFFh) not write-protected
  8067                           ;	Write Protection Block 3
  8068                           ;	WRT3 = OFF, Block 3 (00C000h-00FFFFh) not write-protected
  8069   30000A                     	org	3145738
  8070   30000A  0F                 	db	15
  8071                           
  8072                           ;Config register CONFIG6H @ 0x30000B
  8073                           ;	Configuration Register Write Protection bit
  8074                           ;	WRTC = OFF, Configuration registers (300000-3000FFh) not write-protected
  8075                           ;	Boot Block Write Protection bit
  8076                           ;	WRTB = OFF, Boot Block (000000-0007FFh) not write-protected
  8077                           ;	Data EEPROM Write Protection bit
  8078                           ;	WRTD = OFF, Data EEPROM not write-protected
  8079   30000B                     	org	3145739
  8080   30000B  E0                 	db	224
  8081                           
  8082                           ;Config register CONFIG7L @ 0x30000C
  8083                           ;	Table Read Protection Block 0
  8084                           ;	EBTR0 = OFF, Block 0 (000800-003FFFh) not protected from table reads executed in other
      +                           blocks
  8085                           ;	Table Read Protection Block 1
  8086                           ;	EBTR1 = OFF, Block 1 (004000-007FFFh) not protected from table reads executed in other
      +                           blocks
  8087                           ;	Table Read Protection Block 2
  8088                           ;	EBTR2 = OFF, Block 2 (008000-00BFFFh) not protected from table reads executed in other
      +                           blocks
  8089                           ;	Table Read Protection Block 3
  8090                           ;	EBTR3 = OFF, Block 3 (00C000-00FFFFh) not protected from table reads executed in other
      +                           blocks
  8091   30000C                     	org	3145740
  8092   30000C  0F                 	db	15
  8093                           
  8094                           ;Config register CONFIG7H @ 0x30000D
  8095                           ;	Boot Block Table Read Protection bit
  8096                           ;	EBTRB = OFF, Boot Block (000000-0007FFh) not protected from table reads executed in ot
      +                          her blocks
  8097   30000D                     	org	3145741
  8098   30000D  40                 	db	64
  8099                           tosu	equ	0xFFF
  8100                           tosh	equ	0xFFE
  8101                           tosl	equ	0xFFD
  8102                           stkptr	equ	0xFFC
  8103                           pclatu	equ	0xFFB
  8104                           pclath	equ	0xFFA
  8105                           pcl	equ	0xFF9
  8106                           tblptru	equ	0xFF8
  8107                           tblptrh	equ	0xFF7
  8108                           tblptrl	equ	0xFF6
  8109                           tablat	equ	0xFF5
  8110                           prodh	equ	0xFF4
  8111                           prodl	equ	0xFF3
  8112                           indf0	equ	0xFEF
  8113                           postinc0	equ	0xFEE
  8114                           postdec0	equ	0xFED
  8115                           preinc0	equ	0xFEC
  8116                           plusw0	equ	0xFEB
  8117                           fsr0h	equ	0xFEA
  8118                           fsr0l	equ	0xFE9
  8119                           wreg	equ	0xFE8
  8120                           indf1	equ	0xFE7
  8121                           postinc1	equ	0xFE6
  8122                           postdec1	equ	0xFE5
  8123                           preinc1	equ	0xFE4
  8124                           plusw1	equ	0xFE3
  8125                           fsr1h	equ	0xFE2
  8126                           fsr1l	equ	0xFE1
  8127                           bsr	equ	0xFE0
  8128                           indf2	equ	0xFDF
  8129                           postinc2	equ	0xFDE
  8130                           postdec2	equ	0xFDD
  8131                           preinc2	equ	0xFDC
  8132                           plusw2	equ	0xFDB
  8133                           fsr2h	equ	0xFDA
  8134                           fsr2l	equ	0xFD9
  8135                           status	equ	0xFD8

Data Sizes:
    Strings     49
    Constant    80
    Data        0
    BSS         108
    Persistent  0
    Stack       0

Auto Spaces:
    Space          Size  Autos    Used
    COMRAM           94     64      92
    BANK0           160      0      80
    BANK1           256      0       0
    BANK2           256      0       0
    BANK3           256      0       0
    BANK4           256      0       0
    BANK5           256      0       0
    BANK6           256      0       0
    BANK7           256      0       0
    BANK8           256      0       0
    BANK9           256      0       0
    BANK10          256      0       0
    BANK11          256      0       0
    BANK12          256      0       0
    BANK13          256      0       0
    BANK14          256      0       0
    BANK15           96      0       0

Pointer List with Targets:

    bufferBlock$data	PTR unsigned char  size(2) Largest target is 0

    cb$0	PTR void  size(2) Largest target is 5
		 -> I2C_Read1ByteRegister@returnValue(COMRAM[1]), I2C_Read2ByteRegister@returnValue(COMRAM[2]), I2C_ReadDataBlock@bufferBlock(COMRAM[4]), I2C_Write1ByteRegister@data(COMRAM[1]), 
		 -> I2C_Write2ByteRegister@data(COMRAM[2]), NULL(NULL[0]), 

    cb$0	PTR void  size(2) Largest target is 5
		 -> I2C_Read1ByteRegister@returnValue(COMRAM[1]), I2C_Read2ByteRegister@returnValue(COMRAM[2]), I2C_ReadDataBlock@bufferBlock(COMRAM[4]), I2C_Write1ByteRegister@data(COMRAM[1]), 
		 -> I2C_Write2ByteRegister@data(COMRAM[2]), NULL(NULL[0]), 

    convert_byte_to_str@str	PTR unsigned char  size(1) Largest target is 2
		 -> dummy_str(COMRAM[2]), hex_str(COMRAM[2]), 

    EUSART_FramingErrorCallbackRegister@callbackHandler	PTR FTN()void  size(2) Largest target is 1
		 -> EUSART_DefaultFramingErrorCallback(), 

    EUSART_FramingErrorHandler	PTR FTN()void  size(2) Largest target is 1
		 -> EUSART_DefaultFramingErrorCallback(), NULL(), 

    EUSART_OverrunErrorCallbackRegister@callbackHandler	PTR FTN()void  size(2) Largest target is 1
		 -> EUSART_DefaultOverrunErrorCallback(), 

    EUSART_OverrunErrorHandler	PTR FTN()void  size(2) Largest target is 1
		 -> EUSART_DefaultOverrunErrorCallback(), NULL(), 

    EUSART_Send_String@str	PTR unsigned char  size(2) Largest target is 15
		 -> dummy_str(COMRAM[2]), hex_str(COMRAM[2]), STR_1(CODE[8]), STR_2(CODE[8]), 
		 -> STR_3(CODE[15]), STR_4(CODE[12]), 

    f$.$buffer	PTR unsigned char  size(2) Largest target is 0

    f$.$source	PTR const unsigned char  size(2) Largest target is 0

    fputc@fp	PTR struct _IO_FILE size(1) Largest target is 12
		 -> sprintf@f(COMRAM[12]), 

    fputc@fp$.$buffer	PTR unsigned char  size(2) Largest target is 0

    fputc@fp$.$source	PTR const unsigned char  size(2) Largest target is 0

    I2C_CallbackReturnReset@funPtr	PTR void  size(2) Largest target is 5
		 -> I2C_Read1ByteRegister@returnValue(COMRAM[1]), I2C_Read2ByteRegister@returnValue(COMRAM[2]), I2C_ReadDataBlock@bufferBlock(COMRAM[4]), I2C_Write1ByteRegister@data(COMRAM[1]), 
		 -> I2C_Write2ByteRegister@data(COMRAM[2]), NULL(NULL[0]), 

    I2C_CallbackReturnStop@funPtr	PTR void  size(2) Largest target is 5
		 -> I2C_Read1ByteRegister@returnValue(COMRAM[1]), I2C_Read2ByteRegister@returnValue(COMRAM[2]), I2C_ReadDataBlock@bufferBlock(COMRAM[4]), I2C_Write1ByteRegister@data(COMRAM[1]), 
		 -> I2C_Write2ByteRegister@data(COMRAM[2]), NULL(NULL[0]), 

    I2C_DO_RX$3171	PTR FTN(PTR void ,)enum E363 size(2) Largest target is 1
		 -> I2C_CallbackReturnReset(), I2C_CallbackReturnStop(), rd1RegCompleteHandler(), rd2RegCompleteHandler(), 
		 -> rdBlkRegCompleteHandler(), wr1RegCompleteHandler(), wr2RegCompleteHandler(), NULL(), 

    I2C_DO_RX$3171$0	PTR void  size(2) Largest target is 5
		 -> I2C_Read1ByteRegister@returnValue(COMRAM[1]), I2C_Read2ByteRegister@returnValue(COMRAM[2]), I2C_ReadDataBlock@bufferBlock(COMRAM[4]), I2C_Write1ByteRegister@data(COMRAM[1]), 
		 -> I2C_Write2ByteRegister@data(COMRAM[2]), NULL(NULL[0]), 

    I2C_DO_RX$3176	PTR void  size(2) Largest target is 5
		 -> I2C_Read1ByteRegister@returnValue(COMRAM[1]), I2C_Read2ByteRegister@returnValue(COMRAM[2]), I2C_ReadDataBlock@bufferBlock(COMRAM[4]), I2C_Write1ByteRegister@data(COMRAM[1]), 
		 -> I2C_Write2ByteRegister@data(COMRAM[2]), NULL(NULL[0]), 

    I2C_DO_RX_EMPTY$3183$0	PTR void  size(2) Largest target is 5
		 -> I2C_Read1ByteRegister@returnValue(COMRAM[1]), I2C_Read2ByteRegister@returnValue(COMRAM[2]), I2C_ReadDataBlock@bufferBlock(COMRAM[4]), I2C_Write1ByteRegister@data(COMRAM[1]), 
		 -> I2C_Write2ByteRegister@data(COMRAM[2]), NULL(NULL[0]), 

    I2C_DO_TX$3165	PTR FTN(PTR void ,)enum E363 size(2) Largest target is 1
		 -> I2C_CallbackReturnReset(), I2C_CallbackReturnStop(), rd1RegCompleteHandler(), rd2RegCompleteHandler(), 
		 -> rdBlkRegCompleteHandler(), wr1RegCompleteHandler(), wr2RegCompleteHandler(), NULL(), 

    I2C_DO_TX$3165$0	PTR void  size(2) Largest target is 5
		 -> I2C_Read1ByteRegister@returnValue(COMRAM[1]), I2C_Read2ByteRegister@returnValue(COMRAM[2]), I2C_ReadDataBlock@bufferBlock(COMRAM[4]), I2C_Write1ByteRegister@data(COMRAM[1]), 
		 -> I2C_Write2ByteRegister@data(COMRAM[2]), NULL(NULL[0]), 

    I2C_DO_TX$3170	PTR void  size(2) Largest target is 5
		 -> I2C_Read1ByteRegister@returnValue(COMRAM[1]), I2C_Read2ByteRegister@returnValue(COMRAM[2]), I2C_ReadDataBlock@bufferBlock(COMRAM[4]), I2C_Write1ByteRegister@data(COMRAM[1]), 
		 -> I2C_Write2ByteRegister@data(COMRAM[2]), NULL(NULL[0]), 

    I2C_DO_TX_EMPTY$3177	PTR FTN(PTR void ,)enum E363 size(2) Largest target is 1
		 -> I2C_CallbackReturnReset(), I2C_CallbackReturnStop(), rd1RegCompleteHandler(), rd2RegCompleteHandler(), 
		 -> rdBlkRegCompleteHandler(), wr1RegCompleteHandler(), wr2RegCompleteHandler(), NULL(), 

    I2C_DO_TX_EMPTY$3177$0	PTR void  size(2) Largest target is 5
		 -> I2C_Read1ByteRegister@returnValue(COMRAM[1]), I2C_Read2ByteRegister@returnValue(COMRAM[2]), I2C_ReadDataBlock@bufferBlock(COMRAM[4]), I2C_Write1ByteRegister@data(COMRAM[1]), 
		 -> I2C_Write2ByteRegister@data(COMRAM[2]), NULL(NULL[0]), 

    I2C_DO_TX_EMPTY$3182	PTR void  size(2) Largest target is 5
		 -> I2C_Read1ByteRegister@returnValue(COMRAM[1]), I2C_Read2ByteRegister@returnValue(COMRAM[2]), I2C_ReadDataBlock@bufferBlock(COMRAM[4]), I2C_Write1ByteRegister@data(COMRAM[1]), 
		 -> I2C_Write2ByteRegister@data(COMRAM[2]), NULL(NULL[0]), 

    i2c_fsmStateTable	const PTR FTN()enum E3134[16] size(2) Largest target is 1
		 -> I2C_DO_ADDRESS_NACK(), I2C_DO_IDLE(), I2C_DO_RCEN(), I2C_DO_RESET(), 
		 -> I2C_DO_RX(), I2C_DO_RX_ACK(), I2C_DO_RX_NACK_RESTART(), I2C_DO_RX_NACK_STOP(), 
		 -> I2C_DO_SEND_ADR_READ(), I2C_DO_SEND_ADR_WRITE(), I2C_DO_SEND_RESTART(), I2C_DO_SEND_RESTART_READ(), 
		 -> I2C_DO_SEND_RESTART_WRITE(), I2C_DO_SEND_STOP(), I2C_DO_TX(), I2C_DO_TX_EMPTY(), 

    I2C_MasterFsm$3164	const PTR FTN()enum E3134 size(2) Largest target is 1
		 -> I2C_DO_ADDRESS_NACK(), I2C_DO_IDLE(), I2C_DO_RCEN(), I2C_DO_RESET(), 
		 -> I2C_DO_RX(), I2C_DO_RX_ACK(), I2C_DO_RX_NACK_RESTART(), I2C_DO_RX_NACK_STOP(), 
		 -> I2C_DO_SEND_ADR_READ(), I2C_DO_SEND_ADR_WRITE(), I2C_DO_SEND_RESTART(), I2C_DO_SEND_RESTART_READ(), 
		 -> I2C_DO_SEND_RESTART_WRITE(), I2C_DO_SEND_STOP(), I2C_DO_TX(), I2C_DO_TX_EMPTY(), 

    I2C_Read1ByteRegister@returnValue$data	PTR unsigned char  size(2) Largest target is 0

    I2C_Read2ByteRegister@returnValue$data	PTR unsigned char  size(2) Largest target is 0

    I2C_SetAddressNackCallback@cb	PTR FTN(PTR void ,)enum E363 size(2) Largest target is 1
		 -> NULL(), 

    I2C_SetAddressNackCallback@ptr	PTR void  size(2) Largest target is 0
		 -> NULL(NULL[0]), 

    I2C_SetBuffer@buffer	PTR void  size(2) Largest target is 5
		 -> I2C_Read1ByteRegister@reg(COMRAM[1]), I2C_Read1ByteRegister@returnValue(COMRAM[1]), I2C_Read2ByteRegister@reg(COMRAM[1]), I2C_Read2ByteRegister@returnValue(COMRAM[2]), 
		 -> I2C_ReadDataBlock@bufferBlock(COMRAM[4]), I2C_ReadDataBlock@reg(COMRAM[1]), I2C_Write1Byte@reg(COMRAM[1]), I2C_Write1ByteRegister@data(COMRAM[1]), 
		 -> I2C_Write1ByteRegister@reg(COMRAM[1]), I2C_Write2ByteRegister@data(COMRAM[2]), I2C_Write2ByteRegister@reg(COMRAM[1]), NULL(NULL[0]), 

    I2C_SetCallback@cb	PTR FTN(PTR void ,)enum E363 size(2) Largest target is 1
		 -> rd1RegCompleteHandler(), rd2RegCompleteHandler(), rdBlkRegCompleteHandler(), wr1RegCompleteHandler(), 
		 -> wr2RegCompleteHandler(), NULL(), 

    I2C_SetCallback@ptr	PTR void  size(2) Largest target is 5
		 -> I2C_Read1ByteRegister@returnValue(COMRAM[1]), I2C_Read2ByteRegister@returnValue(COMRAM[2]), I2C_ReadDataBlock@bufferBlock(COMRAM[4]), I2C_Write1ByteRegister@data(COMRAM[1]), 
		 -> I2C_Write2ByteRegister@data(COMRAM[2]), NULL(NULL[0]), 

    I2C_SetDataCompleteCallback@cb	PTR FTN(PTR void ,)enum E363 size(2) Largest target is 1
		 -> rd1RegCompleteHandler(), rd2RegCompleteHandler(), rdBlkRegCompleteHandler(), wr1RegCompleteHandler(), 
		 -> wr2RegCompleteHandler(), NULL(), 

    I2C_SetDataCompleteCallback@ptr	PTR void  size(2) Largest target is 5
		 -> I2C_Read1ByteRegister@returnValue(COMRAM[1]), I2C_Read2ByteRegister@returnValue(COMRAM[2]), I2C_ReadDataBlock@bufferBlock(COMRAM[4]), I2C_Write1ByteRegister@data(COMRAM[1]), 
		 -> I2C_Write2ByteRegister@data(COMRAM[2]), NULL(NULL[0]), 

    I2C_SetInterruptHandler@InterruptHandler	PTR FTN()void  size(2) Largest target is 1
		 -> I2C_MasterIsr(), 

    I2C_Status$callbackPayload	PTR void [6] size(2) Largest target is 5
		 -> I2C_Read1ByteRegister@returnValue(COMRAM[1]), I2C_Read2ByteRegister@returnValue(COMRAM[2]), I2C_ReadDataBlock@bufferBlock(COMRAM[4]), I2C_Write1ByteRegister@data(COMRAM[1]), 
		 -> I2C_Write2ByteRegister@data(COMRAM[2]), NULL(NULL[0]), 

    I2C_Status$callbackTable	PTR FTN(PTR void ,)enum E363[6] size(2) Largest target is 1
		 -> I2C_CallbackReturnReset(), I2C_CallbackReturnStop(), rd1RegCompleteHandler(), rd2RegCompleteHandler(), 
		 -> rdBlkRegCompleteHandler(), wr1RegCompleteHandler(), wr2RegCompleteHandler(), NULL(), 

    I2C_Status$data_ptr	PTR unsigned char  size(2) Largest target is 5
		 -> bufferBlock$data(COMRAM[3]), I2C_Read1ByteRegister@reg(COMRAM[1]), I2C_Read1ByteRegister@returnValue(COMRAM[1]), I2C_Read1ByteRegister@returnValue$data(COMRAM[3]), 
		 -> I2C_Read2ByteRegister@reg(COMRAM[1]), I2C_Read2ByteRegister@returnValue(COMRAM[2]), I2C_Read2ByteRegister@returnValue$data(COMRAM[3]), I2C_ReadDataBlock@bufferBlock(COMRAM[4]), 
		 -> I2C_ReadDataBlock@reg(COMRAM[1]), I2C_Write1Byte@reg(COMRAM[1]), I2C_Write1ByteRegister@data(COMRAM[1]), I2C_Write1ByteRegister@data$data(COMRAM[3]), 
		 -> I2C_Write1ByteRegister@reg(COMRAM[1]), I2C_Write2ByteRegister@data(COMRAM[2]), I2C_Write2ByteRegister@data$data(COMRAM[3]), I2C_Write2ByteRegister@reg(COMRAM[1]), 
		 -> NULL(NULL[0]), 

    I2C_Write1ByteRegister@data$data	PTR unsigned char  size(2) Largest target is 0

    I2C_Write2ByteRegister@data$data	PTR unsigned char  size(2) Largest target is 0

    INT0_InterruptHandler	PTR FTN()void  size(2) Largest target is 1
		 -> INT0_DefaultInterruptHandler(), NULL(), 

    INT0_SetInterruptHandler@InterruptHandler	PTR FTN()void  size(2) Largest target is 1
		 -> INT0_DefaultInterruptHandler(), 

    INT1_InterruptHandler	PTR FTN()void  size(2) Largest target is 1
		 -> INT1_DefaultInterruptHandler(), NULL(), 

    INT1_SetInterruptHandler@InterruptHandler	PTR FTN()void  size(2) Largest target is 1
		 -> INT1_DefaultInterruptHandler(), 

    INT2_InterruptHandler	PTR FTN()void  size(2) Largest target is 1
		 -> INT2_DefaultInterruptHandler(), NULL(), 

    INT2_SetInterruptHandler@InterruptHandler	PTR FTN()void  size(2) Largest target is 1
		 -> INT2_DefaultInterruptHandler(), 

    memset@dest	PTR void  size(1) Largest target is 2
		 -> dummy_str(COMRAM[2]), hex_str(COMRAM[2]), 

    memset@p	PTR unsigned char  size(1) Largest target is 2
		 -> dummy_str(COMRAM[2]), hex_str(COMRAM[2]), 

    MSSP_InterruptHandler	PTR FTN()void  size(2) Largest target is 1
		 -> I2C_MasterIsr(), NULL(), 

    NULL$0	PTR void  size(2) Largest target is 5
		 -> I2C_Read1ByteRegister@returnValue(COMRAM[1]), I2C_Read2ByteRegister@returnValue(COMRAM[2]), I2C_ReadDataBlock@bufferBlock(COMRAM[4]), I2C_Write1ByteRegister@data(COMRAM[1]), 
		 -> I2C_Write2ByteRegister@data(COMRAM[2]), NULL(NULL[0]), 

    rd1RegCompleteHandler@ptr	PTR void  size(2) Largest target is 5
		 -> I2C_Read1ByteRegister@returnValue(COMRAM[1]), I2C_Read2ByteRegister@returnValue(COMRAM[2]), I2C_ReadDataBlock@bufferBlock(COMRAM[4]), I2C_Write1ByteRegister@data(COMRAM[1]), 
		 -> I2C_Write2ByteRegister@data(COMRAM[2]), NULL(NULL[0]), 

    rd2RegCompleteHandler@ptr	PTR void  size(2) Largest target is 5
		 -> I2C_Read1ByteRegister@returnValue(COMRAM[1]), I2C_Read2ByteRegister@returnValue(COMRAM[2]), I2C_ReadDataBlock@bufferBlock(COMRAM[4]), I2C_Write1ByteRegister@data(COMRAM[1]), 
		 -> I2C_Write2ByteRegister@data(COMRAM[2]), NULL(NULL[0]), 

    rdBlkRegCompleteHandler@ptr	PTR void  size(2) Largest target is 5
		 -> I2C_Read1ByteRegister@returnValue(COMRAM[1]), I2C_Read2ByteRegister@returnValue(COMRAM[2]), I2C_ReadDataBlock@bufferBlock(COMRAM[4]), I2C_Write1ByteRegister@data(COMRAM[1]), 
		 -> I2C_Write2ByteRegister@data(COMRAM[2]), NULL(NULL[0]), 

    rdBlkRegCompleteHandler@ptr$data	PTR unsigned char  size(2) Largest target is 0

    S1656$20$0	PTR FTN()void  size(2) Largest target is 1
		 -> EUSART_DefaultFramingErrorCallback(), 

    S1656$21$0	PTR FTN()void  size(2) Largest target is 1
		 -> EUSART_DefaultOverrunErrorCallback(), 

    S1656$AutoBaudEventEnableGet	PTR FTN()_Bool  size(2) Largest target is 1
		 -> NULL(), 

    S1656$AutoBaudQuery	PTR FTN()_Bool  size(2) Largest target is 1
		 -> EUSART_AutoBaudQuery(), 

    S1656$AutoBaudSet	PTR FTN(_Bool ,)void  size(2) Largest target is 1
		 -> EUSART_AutoBaudSet(), 

    S1656$BaudRateGet	PTR FTN()unsigned long  size(2) Largest target is 1
		 -> NULL(), 

    S1656$BaudRateSet	PTR FTN(unsigned long ,)void  size(2) Largest target is 1
		 -> NULL(), 

    S1656$BRGCountGet	PTR FTN()unsigned long  size(2) Largest target is 1
		 -> NULL(), 

    S1656$BRGCountSet	PTR FTN(unsigned long ,)void  size(2) Largest target is 1
		 -> NULL(), 

    S1656$Deinitialize	PTR FTN()void  size(2) Largest target is 1
		 -> EUSART_Deinitialize(), 

    S1656$ErrorGet	PTR FTN()unsigned int  size(2) Largest target is 2
		 -> EUSART_ErrorGet(), 

    S1656$EventCallbackRegister	PTR FTN(PTR FTN()void ,)void  size(2) Largest target is 1
		 -> NULL(), 

    S1656$FramingErrorCallbackRegister	PTR FTN(PTR FTN()void ,)void  size(2) Largest target is 1
		 -> EUSART_FramingErrorCallbackRegister(), 

    S1656$Initialize	PTR FTN()void  size(2) Largest target is 1
		 -> EUSART_Initialize(), 

    S1656$IsRxReady	PTR FTN()_Bool  size(2) Largest target is 1
		 -> EUSART_IsRxReady(), 

    S1656$IsTxDone	PTR FTN()_Bool  size(2) Largest target is 1
		 -> EUSART_IsTxDone(), 

    S1656$IsTxReady	PTR FTN()_Bool  size(2) Largest target is 1
		 -> EUSART_IsTxReady(), 

    S1656$OverrunErrorCallbackRegister	PTR FTN(PTR FTN()void ,)void  size(2) Largest target is 1
		 -> EUSART_OverrunErrorCallbackRegister(), 

    S1656$ParityErrorCallbackRegister	PTR FTN(PTR FTN()void ,)void  size(2) Largest target is 1
		 -> NULL(), 

    S1656$Read	PTR FTN()unsigned char  size(2) Largest target is 1
		 -> EUSART_Read(), 

    S1656$RxCompleteCallbackRegister	PTR FTN(PTR FTN()void ,)void  size(2) Largest target is 1
		 -> NULL(), 

    S1656$TransmitDisable	PTR FTN()void  size(2) Largest target is 1
		 -> EUSART_TransmitDisable(), 

    S1656$TransmitEnable	PTR FTN()void  size(2) Largest target is 1
		 -> EUSART_TransmitEnable(), 

    S1656$TxCollisionCallbackRegister	PTR FTN(PTR FTN()void ,)void  size(2) Largest target is 1
		 -> NULL(), 

    S1656$TxCompleteCallbackRegister	PTR FTN(PTR FTN()void ,)void  size(2) Largest target is 1
		 -> NULL(), 

    S1656$Write	PTR FTN(unsigned char ,)void  size(2) Largest target is 1
		 -> EUSART_Write(), 

    S217$0$0	PTR void  size(2) Largest target is 5
		 -> I2C_Read1ByteRegister@returnValue(COMRAM[1]), I2C_Read2ByteRegister@returnValue(COMRAM[2]), I2C_ReadDataBlock@bufferBlock(COMRAM[4]), I2C_Write1ByteRegister@data(COMRAM[1]), 
		 -> I2C_Write2ByteRegister@data(COMRAM[2]), NULL(NULL[0]), 

    S217$callbackPayload	PTR void [6] size(2) Largest target is 5
		 -> I2C_Read1ByteRegister@returnValue(COMRAM[1]), I2C_Read2ByteRegister@returnValue(COMRAM[2]), I2C_ReadDataBlock@bufferBlock(COMRAM[4]), I2C_Write1ByteRegister@data(COMRAM[1]), 
		 -> I2C_Write2ByteRegister@data(COMRAM[2]), NULL(NULL[0]), 

    S217$callbackTable	PTR FTN(PTR void ,)enum E363[6] size(2) Largest target is 1
		 -> I2C_CallbackReturnReset(), I2C_CallbackReturnStop(), rd1RegCompleteHandler(), rd2RegCompleteHandler(), 
		 -> rdBlkRegCompleteHandler(), wr1RegCompleteHandler(), wr2RegCompleteHandler(), NULL(), 

    S217$data_ptr	PTR unsigned char  size(2) Largest target is 5
		 -> I2C_Read1ByteRegister@reg(COMRAM[1]), I2C_Read1ByteRegister@returnValue(COMRAM[1]), I2C_Read2ByteRegister@reg(COMRAM[1]), I2C_Read2ByteRegister@returnValue(COMRAM[2]), 
		 -> I2C_ReadDataBlock@bufferBlock(COMRAM[4]), I2C_ReadDataBlock@reg(COMRAM[1]), I2C_Write1Byte@reg(COMRAM[1]), I2C_Write1ByteRegister@data(COMRAM[1]), 
		 -> I2C_Write1ByteRegister@reg(COMRAM[1]), I2C_Write2ByteRegister@data(COMRAM[2]), I2C_Write2ByteRegister@reg(COMRAM[1]), NULL(NULL[0]), 

    S2691$buffer	PTR unsigned char  size(2) Largest target is 0

    S2691$source	PTR const unsigned char  size(2) Largest target is 0

    S909$data	PTR unsigned char  size(2) Largest target is 0

    sp__memset	PTR void  size(1) Largest target is 2
		 -> dummy_str(COMRAM[2]), hex_str(COMRAM[2]), 

    sprintf@ap	PTR void [1] size(1) Largest target is 2
		 -> ?_sprintf(COMRAM[2]), 

    sprintf@fmt	PTR const unsigned char  size(1) Largest target is 3
		 -> STR_5(CODE[3]), STR_6(CODE[3]), 

    sprintf@s	PTR unsigned char  size(1) Largest target is 2
		 -> dummy_str(COMRAM[2]), hex_str(COMRAM[2]), 

    strlen@a	PTR const unsigned char  size(2) Largest target is 15
		 -> dummy_str(COMRAM[2]), hex_str(COMRAM[2]), STR_1(CODE[8]), STR_2(CODE[8]), 
		 -> STR_3(CODE[15]), STR_4(CODE[12]), 

    strlen@s	PTR const unsigned char  size(2) Largest target is 15
		 -> dummy_str(COMRAM[2]), hex_str(COMRAM[2]), STR_1(CODE[8]), STR_2(CODE[8]), 
		 -> STR_3(CODE[15]), STR_4(CODE[12]), 

    UART1$AutoBaudEventEnableGet	PTR FTN()_Bool  size(2) Largest target is 1
		 -> NULL(), 

    UART1$AutoBaudQuery	PTR FTN()_Bool  size(2) Largest target is 1
		 -> EUSART_AutoBaudQuery(), 

    UART1$AutoBaudSet	PTR FTN(_Bool ,)void  size(2) Largest target is 1
		 -> EUSART_AutoBaudSet(), 

    UART1$BaudRateGet	PTR FTN()unsigned long  size(2) Largest target is 1
		 -> NULL(), 

    UART1$BaudRateSet	PTR FTN(unsigned long ,)void  size(2) Largest target is 1
		 -> NULL(), 

    UART1$BRGCountGet	PTR FTN()unsigned long  size(2) Largest target is 1
		 -> NULL(), 

    UART1$BRGCountSet	PTR FTN(unsigned long ,)void  size(2) Largest target is 1
		 -> NULL(), 

    UART1$Deinitialize	PTR FTN()void  size(2) Largest target is 1
		 -> EUSART_Deinitialize(), 

    UART1$ErrorGet	PTR FTN()unsigned int  size(2) Largest target is 2
		 -> EUSART_ErrorGet(), 

    UART1$EventCallbackRegister	PTR FTN(PTR FTN()void ,)void  size(2) Largest target is 1
		 -> NULL(), 

    UART1$FramingErrorCallbackRegister	PTR FTN(PTR FTN()void ,)void  size(2) Largest target is 1
		 -> EUSART_FramingErrorCallbackRegister(), 

    UART1$Initialize	PTR FTN()void  size(2) Largest target is 1
		 -> EUSART_Initialize(), 

    UART1$IsRxReady	PTR FTN()_Bool  size(2) Largest target is 1
		 -> EUSART_IsRxReady(), 

    UART1$IsTxDone	PTR FTN()_Bool  size(2) Largest target is 1
		 -> EUSART_IsTxDone(), 

    UART1$IsTxReady	PTR FTN()_Bool  size(2) Largest target is 1
		 -> EUSART_IsTxReady(), 

    UART1$OverrunErrorCallbackRegister	PTR FTN(PTR FTN()void ,)void  size(2) Largest target is 1
		 -> EUSART_OverrunErrorCallbackRegister(), 

    UART1$ParityErrorCallbackRegister	PTR FTN(PTR FTN()void ,)void  size(2) Largest target is 1
		 -> NULL(), 

    UART1$Read	PTR FTN()unsigned char  size(2) Largest target is 1
		 -> EUSART_Read(), 

    UART1$RxCompleteCallbackRegister	PTR FTN(PTR FTN()void ,)void  size(2) Largest target is 1
		 -> NULL(), 

    UART1$TransmitDisable	PTR FTN()void  size(2) Largest target is 1
		 -> EUSART_TransmitDisable(), 

    UART1$TransmitEnable	PTR FTN()void  size(2) Largest target is 1
		 -> EUSART_TransmitEnable(), 

    UART1$TxCollisionCallbackRegister	PTR FTN(PTR FTN()void ,)void  size(2) Largest target is 1
		 -> NULL(), 

    UART1$TxCompleteCallbackRegister	PTR FTN(PTR FTN()void ,)void  size(2) Largest target is 1
		 -> NULL(), 

    UART1$Write	PTR FTN(unsigned char ,)void  size(2) Largest target is 1
		 -> EUSART_Write(), 

    vfpfcnvrt@ap	PTR PTR void  size(1) Largest target is 1
		 -> sprintf@ap(COMRAM[1]), 

    vfpfcnvrt@cp	PTR unsigned char  size(1) Largest target is 3
		 -> STR_5(CODE[3]), STR_6(CODE[3]), 

    vfpfcnvrt@fmt	PTR PTR unsigned char  size(1) Largest target is 1
		 -> vfprintf@cfmt(COMRAM[1]), 

    vfpfcnvrt@fp	PTR struct _IO_FILE size(1) Largest target is 12
		 -> sprintf@f(COMRAM[12]), 

    vfprintf@ap	PTR PTR void  size(1) Largest target is 1
		 -> sprintf@ap(COMRAM[1]), 

    vfprintf@cfmt	PTR unsigned char  size(1) Largest target is 3
		 -> STR_5(CODE[3]), STR_6(CODE[3]), 

    vfprintf@fmt	PTR const unsigned char  size(1) Largest target is 3
		 -> STR_5(CODE[3]), STR_6(CODE[3]), 

    vfprintf@fp	PTR struct _IO_FILE size(1) Largest target is 12
		 -> sprintf@f(COMRAM[12]), 

    wr1RegCompleteHandler@ptr	PTR void  size(2) Largest target is 5
		 -> I2C_Read1ByteRegister@returnValue(COMRAM[1]), I2C_Read2ByteRegister@returnValue(COMRAM[2]), I2C_ReadDataBlock@bufferBlock(COMRAM[4]), I2C_Write1ByteRegister@data(COMRAM[1]), 
		 -> I2C_Write2ByteRegister@data(COMRAM[2]), NULL(NULL[0]), 

    wr2RegCompleteHandler@ptr	PTR void  size(2) Largest target is 5
		 -> I2C_Read1ByteRegister@returnValue(COMRAM[1]), I2C_Read2ByteRegister@returnValue(COMRAM[2]), I2C_ReadDataBlock@bufferBlock(COMRAM[4]), I2C_Write1ByteRegister@data(COMRAM[1]), 
		 -> I2C_Write2ByteRegister@data(COMRAM[2]), NULL(NULL[0]), 


Critical Paths under _main in COMRAM

    _main->_EUSART_Send_Date
    _main->_EUSART_Send_Time
    _INTERRUPT_Initialize->_INT0_SetInterruptHandler
    _INTERRUPT_Initialize->_INT1_SetInterruptHandler
    _INTERRUPT_Initialize->_INT2_SetInterruptHandler
    _EUSART_Initialize->_EUSART_FramingErrorCallbackRegister
    _EUSART_Initialize->_EUSART_OverrunErrorCallbackRegister
    _Read_Temperature->_I2C_Read1ByteRegister
    _I2C_Write1Byte->_I2C_SetAddressNackCallback
    _Get_time_And_Date->_Get_days
    _Get_time_And_Date->_Get_hours
    _Get_time_And_Date->_Get_minutes
    _Get_time_And_Date->_Get_months
    _Get_time_And_Date->_Get_seconds
    _Get_time_And_Date->_Get_years
    _Get_years->_I2C_Read1ByteRegister
    _Get_seconds->_I2C_Read1ByteRegister
    _Get_months->_I2C_Read1ByteRegister
    _Get_minutes->_I2C_Read1ByteRegister
    _Get_hours->_I2C_Read1ByteRegister
    _Get_days->_I2C_Read1ByteRegister
    _I2C_Read1ByteRegister->_I2C_SetAddressNackCallback
    _I2C_Read1ByteRegister->_I2C_SetDataCompleteCallback
    _I2C_SetDataCompleteCallback->_I2C_SetCallback
    _I2C_SetAddressNackCallback->_I2C_SetCallback
    _I2C_Open->_I2C_SetInterruptHandler
    _I2C_MasterWrite->_I2C_MasterOperation
    _EUSART_Send_Time->_convert_byte_to_str
    _EUSART_Send_Temp->_convert_byte_to_str
    _EUSART_Send_Date->_convert_byte_to_str
    _convert_byte_to_str->_sprintf
    _sprintf->_vfprintf
    _vfprintf->_vfpfcnvrt
    _vfpfcnvrt->_abs
    _abs->___awmod
    _EUSART_Send_String->_strlen

Critical Paths under _INTERRUPT_InterruptManagerHigh in COMRAM

    _I2C_MasterIsr->_I2C_MasterFsm
    _I2C_MasterFsm->_I2C_DO_TX
    _I2C_DO_TX->_I2C_MasterSendTxData
    _I2C_DO_SEND_ADR_WRITE->_I2C_MasterSendTxData
    _wr2RegCompleteHandler->i2_I2C_SetDataCompleteCallback
    _wr1RegCompleteHandler->i2_I2C_SetDataCompleteCallback
    _rdBlkRegCompleteHandler->i2_I2C_SetDataCompleteCallback
    _rd2RegCompleteHandler->i2_I2C_SetDataCompleteCallback
    _rd1RegCompleteHandler->i2_I2C_SetDataCompleteCallback
    i2_I2C_SetDataCompleteCallback->i2_I2C_SetCallback

Critical Paths under _main in BANK0

    None.

Critical Paths under _INTERRUPT_InterruptManagerHigh in BANK0

    None.

Critical Paths under _main in BANK1

    None.

Critical Paths under _INTERRUPT_InterruptManagerHigh in BANK1

    None.

Critical Paths under _main in BANK2

    None.

Critical Paths under _INTERRUPT_InterruptManagerHigh in BANK2

    None.

Critical Paths under _main in BANK3

    None.

Critical Paths under _INTERRUPT_InterruptManagerHigh in BANK3

    None.

Critical Paths under _main in BANK4

    None.

Critical Paths under _INTERRUPT_InterruptManagerHigh in BANK4

    None.

Critical Paths under _main in BANK5

    None.

Critical Paths under _INTERRUPT_InterruptManagerHigh in BANK5

    None.

Critical Paths under _main in BANK6

    None.

Critical Paths under _INTERRUPT_InterruptManagerHigh in BANK6

    None.

Critical Paths under _main in BANK7

    None.

Critical Paths under _INTERRUPT_InterruptManagerHigh in BANK7

    None.

Critical Paths under _main in BANK8

    None.

Critical Paths under _INTERRUPT_InterruptManagerHigh in BANK8

    None.

Critical Paths under _main in BANK9

    None.

Critical Paths under _INTERRUPT_InterruptManagerHigh in BANK9

    None.

Critical Paths under _main in BANK10

    None.

Critical Paths under _INTERRUPT_InterruptManagerHigh in BANK10

    None.

Critical Paths under _main in BANK11

    None.

Critical Paths under _INTERRUPT_InterruptManagerHigh in BANK11

    None.

Critical Paths under _main in BANK12

    None.

Critical Paths under _INTERRUPT_InterruptManagerHigh in BANK12

    None.

Critical Paths under _main in BANK13

    None.

Critical Paths under _INTERRUPT_InterruptManagerHigh in BANK13

    None.

Critical Paths under _main in BANK14

    None.

Critical Paths under _INTERRUPT_InterruptManagerHigh in BANK14

    None.

Critical Paths under _main in BANK15

    None.

Critical Paths under _INTERRUPT_InterruptManagerHigh in BANK15

    None.

Call Graph Tables:

 ---------------------------------------------------------------------------------
 (Depth) Function   	        Calls       Base Space   Used Autos Params    Refs
 ---------------------------------------------------------------------------------
 (0) _main                                                 0     0      0   74323
                   _EUSART_Send_Date
                   _EUSART_Send_Temp
                   _EUSART_Send_Time
                  _Get_time_And_Date
                     _I2C_Write1Byte
                   _Read_Temperature
                  _SYSTEM_Initialize
 ---------------------------------------------------------------------------------
 (1) _SYSTEM_Initialize                                    0     0      0     534
                   _CLOCK_Initialize
                  _EUSART_Initialize
               _EUSART_ReceiveEnable
                     _I2C_Initialize
               _INTERRUPT_Initialize
                     _NVM_Initialize
             _PIN_MANAGER_Initialize
 ---------------------------------------------------------------------------------
 (2) _PIN_MANAGER_Initialize                               0     0      0       0
 ---------------------------------------------------------------------------------
 (2) _NVM_Initialize                                       0     0      0       0
                    _NVM_StatusClear
 ---------------------------------------------------------------------------------
 (3) _NVM_StatusClear                                      0     0      0       0
 ---------------------------------------------------------------------------------
 (2) _INTERRUPT_Initialize                                 0     0      0     294
           _INT0_SetInterruptHandler
           _INT1_SetInterruptHandler
           _INT2_SetInterruptHandler
 ---------------------------------------------------------------------------------
 (3) _INT2_SetInterruptHandler                             2     0      2      98
                                             16 COMRAM     2     0      2
 ---------------------------------------------------------------------------------
 (3) _INT1_SetInterruptHandler                             2     0      2      98
                                             16 COMRAM     2     0      2
 ---------------------------------------------------------------------------------
 (3) _INT0_SetInterruptHandler                             2     0      2      98
                                             16 COMRAM     2     0      2
 ---------------------------------------------------------------------------------
 (2) _I2C_Initialize                                       0     0      0       0
 ---------------------------------------------------------------------------------
 (2) _EUSART_ReceiveEnable                                 0     0      0       0
 ---------------------------------------------------------------------------------
 (2) _EUSART_Initialize                                    0     0      0     240
_EUSART_FramingErrorCallbackRegister
_EUSART_OverrunErrorCallbackRegister
 ---------------------------------------------------------------------------------
 (3) _EUSART_OverrunErrorCallbackRegister                  2     0      2     120
                                             16 COMRAM     2     0      2
 ---------------------------------------------------------------------------------
 (3) _EUSART_FramingErrorCallbackRegister                  2     0      2     120
                                             16 COMRAM     2     0      2
 ---------------------------------------------------------------------------------
 (2) _CLOCK_Initialize                                     0     0      0       0
 ---------------------------------------------------------------------------------
 (1) _Read_Temperature                                     3     3      0    6967
                                             28 COMRAM     3     3      0
              _I2C_Read1ByteRegister
 ---------------------------------------------------------------------------------
 (1) _I2C_Write1Byte                                       2     1      1    4119
                                             25 COMRAM     2     1      1
                          _I2C_Close
                    _I2C_MasterWrite
                           _I2C_Open
         _I2C_SetAddressNackCallback
                      _I2C_SetBuffer
 ---------------------------------------------------------------------------------
 (1) _Get_time_And_Date                                    6     0      6   42372
                                             31 COMRAM     6     0      6
                           _Get_days
                          _Get_hours
                        _Get_minutes
                         _Get_months
                        _Get_seconds
                          _Get_years
 ---------------------------------------------------------------------------------
 (2) _Get_years                                            3     2      1    7062
                                             28 COMRAM     3     2      1
              _I2C_Read1ByteRegister
 ---------------------------------------------------------------------------------
 (2) _Get_seconds                                          3     2      1    7062
                                             28 COMRAM     3     2      1
              _I2C_Read1ByteRegister
 ---------------------------------------------------------------------------------
 (2) _Get_months                                           3     2      1    7062
                                             28 COMRAM     3     2      1
              _I2C_Read1ByteRegister
 ---------------------------------------------------------------------------------
 (2) _Get_minutes                                          3     2      1    7062
                                             28 COMRAM     3     2      1
              _I2C_Read1ByteRegister
 ---------------------------------------------------------------------------------
 (2) _Get_hours                                            3     2      1    7062
                                             28 COMRAM     3     2      1
              _I2C_Read1ByteRegister
 ---------------------------------------------------------------------------------
 (2) _Get_days                                             3     2      1    7062
                                             28 COMRAM     3     2      1
              _I2C_Read1ByteRegister
 ---------------------------------------------------------------------------------
 (2) _I2C_Read1ByteRegister                                3     2      1    6919
                                             25 COMRAM     3     2      1
                          _I2C_Close
                    _I2C_MasterWrite
                           _I2C_Open
         _I2C_SetAddressNackCallback
                      _I2C_SetBuffer
        _I2C_SetDataCompleteCallback
 ---------------------------------------------------------------------------------
 (3) _I2C_SetDataCompleteCallback                          4     0      4    2218
                                             21 COMRAM     4     0      4
                    _I2C_SetCallback
 ---------------------------------------------------------------------------------
 (3) _I2C_SetBuffer                                        4     0      4    1760
                                             16 COMRAM     4     0      4
 ---------------------------------------------------------------------------------
 (3) _I2C_SetAddressNackCallback                           4     0      4    2022
                                             21 COMRAM     4     0      4
                    _I2C_SetCallback
 ---------------------------------------------------------------------------------
 (4) _I2C_SetCallback                                      5     1      4     914
                                             16 COMRAM     5     1      4
 ---------------------------------------------------------------------------------
 (3) _I2C_Open                                             2     2      0     144
                                             18 COMRAM     2     2      0
                 _I2C_MasterClearIrq
                _I2C_MasterEnableIrq
                     _I2C_MasterOpen
            _I2C_SetInterruptHandler
 ---------------------------------------------------------------------------------
 (4) _I2C_SetInterruptHandler                              2     0      2      98
                                             16 COMRAM     2     0      2
 ---------------------------------------------------------------------------------
 (4) _I2C_MasterOpen                                       0     0      0       0
 ---------------------------------------------------------------------------------
 (4) _I2C_MasterEnableIrq                                  0     0      0       0
 ---------------------------------------------------------------------------------
 (3) _I2C_MasterWrite                                      0     0      0      46
                _I2C_MasterOperation
 ---------------------------------------------------------------------------------
 (4) _I2C_MasterOperation                                  2     2      0      46
                                             16 COMRAM     2     2      0
                    _I2C_MasterStart
 ---------------------------------------------------------------------------------
 (5) _I2C_MasterStart                                      0     0      0       0
 ---------------------------------------------------------------------------------
 (3) _I2C_Close                                            1     1      0      24
                                             16 COMRAM     1     1      0
                 _I2C_MasterClearIrq
                    _I2C_MasterClose
               _I2C_MasterDisableIrq
 ---------------------------------------------------------------------------------
 (4) _I2C_MasterDisableIrq                                 0     0      0       0
 ---------------------------------------------------------------------------------
 (4) _I2C_MasterClose                                      0     0      0       0
 ---------------------------------------------------------------------------------
 (4) _I2C_MasterClearIrq                                   0     0      0       0
 ---------------------------------------------------------------------------------
 (1) _EUSART_Send_Time                                     2     2      0    6777
                                             62 COMRAM     2     2      0
                   _EUSART_IsTxReady
                 _EUSART_Send_String
                       _EUSART_Write
                _convert_byte_to_str
 ---------------------------------------------------------------------------------
 (1) _EUSART_Send_Temp                                     0     0      0    6777
                   _EUSART_IsTxReady
                 _EUSART_Send_String
                       _EUSART_Write
                _convert_byte_to_str
 ---------------------------------------------------------------------------------
 (1) _EUSART_Send_Date                                     2     2      0    6777
                                             62 COMRAM     2     2      0
                   _EUSART_IsTxReady
                 _EUSART_Send_String
                       _EUSART_Write
                _convert_byte_to_str
 ---------------------------------------------------------------------------------
 (2) _convert_byte_to_str                                  2     0      2    5592
                                             60 COMRAM     2     0      2
                             _memset
                            _sprintf
 ---------------------------------------------------------------------------------
 (3) _sprintf                                             19    15      4    3910
                                             43 COMRAM    17    13      4
                           _vfprintf
 ---------------------------------------------------------------------------------
 (4) _vfprintf                                             4     1      3    3405
                                             39 COMRAM     4     1      3
                          _vfpfcnvrt
 ---------------------------------------------------------------------------------
 (5) _vfpfcnvrt                                           13    10      3    3053
                                             26 COMRAM    13    10      3
                            ___awdiv
                            ___awmod
                                _abs
                              _fputc
 ---------------------------------------------------------------------------------
 (6) _fputc                                                8     5      3     934
                                             16 COMRAM     8     5      3
                              _putch
 ---------------------------------------------------------------------------------
 (7) _putch                                                1     1      0       0
 ---------------------------------------------------------------------------------
 (6) _abs                                                  4     2      2     142
                                             22 COMRAM     4     2      2
                            ___awmod (ARG)
 ---------------------------------------------------------------------------------
 (6) ___awmod                                              6     2      4     448
                                             16 COMRAM     6     2      4
 ---------------------------------------------------------------------------------
 (6) ___awdiv                                              8     4      4     452
                                             16 COMRAM     8     4      4
 ---------------------------------------------------------------------------------
 (3) _memset                                               6     1      5     552
                                             16 COMRAM     6     1      5
 ---------------------------------------------------------------------------------
 (2) _EUSART_Send_String                                   5     3      2    1139
                                             20 COMRAM     5     3      2
                   _EUSART_IsTxReady
                       _EUSART_Write
                             _strlen
 ---------------------------------------------------------------------------------
 (3) _strlen                                               4     2      2     166
                                             16 COMRAM     4     2      2
 ---------------------------------------------------------------------------------
 (2) _EUSART_Write                                         1     1      0      22
                                             16 COMRAM     1     1      0
 ---------------------------------------------------------------------------------
 (3) _EUSART_IsTxReady                                     1     1      0      24
                                             16 COMRAM     1     1      0
 ---------------------------------------------------------------------------------
 Estimated maximum stack depth 7
 ---------------------------------------------------------------------------------
 (Depth) Function   	        Calls       Base Space   Used Autos Params    Refs
 ---------------------------------------------------------------------------------
 (8) _INTERRUPT_InterruptManagerHigh                      10    10      0   17934
                                              6 COMRAM    10    10      0
                                NULL *
                      _I2C_MasterIsr *
 ---------------------------------------------------------------------------------
 (9) _I2C_MasterIsr                                        0     0      0   17934
                      _I2C_MasterFsm
 ---------------------------------------------------------------------------------
 (10) _I2C_MasterFsm                                       3     3      0   17934
                                              3 COMRAM     3     3      0
                _I2C_DO_ADDRESS_NACK *
                        _I2C_DO_IDLE *
                        _I2C_DO_RCEN *
                       _I2C_DO_RESET *
                          _I2C_DO_RX *
                      _I2C_DO_RX_ACK *
             _I2C_DO_RX_NACK_RESTART *
                _I2C_DO_RX_NACK_STOP *
               _I2C_DO_SEND_ADR_READ *
              _I2C_DO_SEND_ADR_WRITE *
                _I2C_DO_SEND_RESTART *
           _I2C_DO_SEND_RESTART_READ *
          _I2C_DO_SEND_RESTART_WRITE *
                   _I2C_DO_SEND_STOP *
                          _I2C_DO_TX *
                    _I2C_DO_TX_EMPTY *
                   _I2C_MasterIsNack
               i2_I2C_MasterClearIrq
 ---------------------------------------------------------------------------------
 (11) i2_I2C_MasterClearIrq                                0     0      0       0
 ---------------------------------------------------------------------------------
 (11) _I2C_DO_TX_EMPTY                                     2     2      0    4467
                                              0 COMRAM     2     2      0
                                NULL *
            _I2C_CallbackReturnReset *
             _I2C_CallbackReturnStop *
                _I2C_DO_SEND_RESTART
                   _I2C_DO_SEND_STOP
                   _I2C_MasterSetIrq
              _rd1RegCompleteHandler *
              _rd2RegCompleteHandler *
            _rdBlkRegCompleteHandler *
              _wr1RegCompleteHandler *
              _wr2RegCompleteHandler *
 ---------------------------------------------------------------------------------
 (12) _I2C_MasterSetIrq                                    0     0      0       0
 ---------------------------------------------------------------------------------
 (11) _I2C_DO_TX                                           2     2      0    4489
                                              1 COMRAM     2     2      0
                                NULL *
            _I2C_CallbackReturnReset *
             _I2C_CallbackReturnStop *
           _I2C_DO_SEND_RESTART_READ
          _I2C_DO_SEND_RESTART_WRITE
                   _I2C_DO_SEND_STOP
                   _I2C_MasterIsNack
               _I2C_MasterSendTxData
              _rd1RegCompleteHandler *
              _rd2RegCompleteHandler *
            _rdBlkRegCompleteHandler *
              _wr1RegCompleteHandler *
              _wr2RegCompleteHandler *
 ---------------------------------------------------------------------------------
 (11) _I2C_MasterIsNack                                    0     0      0       0
 ---------------------------------------------------------------------------------
 (12) _I2C_DO_SEND_RESTART_WRITE                           0     0      0       0
            _I2C_MasterEnableRestart
 ---------------------------------------------------------------------------------
 (12) _I2C_DO_SEND_RESTART_READ                            0     0      0       0
            _I2C_MasterEnableRestart
 ---------------------------------------------------------------------------------
 (11) _I2C_DO_SEND_ADR_WRITE                               0     0      0      22
               _I2C_MasterSendTxData
 ---------------------------------------------------------------------------------
 (11) _I2C_DO_SEND_ADR_READ                                0     0      0      22
               _I2C_MasterSendTxData
 ---------------------------------------------------------------------------------
 (12) _I2C_MasterSendTxData                                1     1      0      22
                                              0 COMRAM     1     1      0
 ---------------------------------------------------------------------------------
 (11) _I2C_DO_RX_ACK                                       0     0      0       0
                  _I2C_MasterSendAck
 ---------------------------------------------------------------------------------
 (11) _I2C_DO_RX                                           2     2      0    4467
                                              0 COMRAM     2     2      0
                                NULL *
            _I2C_CallbackReturnReset *
             _I2C_CallbackReturnStop *
             _I2C_DO_RX_NACK_RESTART
                _I2C_DO_RX_NACK_STOP
                _I2C_MasterGetRxData
                  _I2C_MasterSendAck
              _rd1RegCompleteHandler *
              _rd2RegCompleteHandler *
            _rdBlkRegCompleteHandler *
              _wr1RegCompleteHandler *
              _wr2RegCompleteHandler *
 ---------------------------------------------------------------------------------
 (12) _I2C_MasterSendAck                                   0     0      0       0
 ---------------------------------------------------------------------------------
 (12) _I2C_MasterGetRxData                                 0     0      0       0
 ---------------------------------------------------------------------------------
 (11) _I2C_DO_RX_NACK_STOP                                 0     0      0       0
                 _I2C_MasterSendNack
 ---------------------------------------------------------------------------------
 (11) _I2C_DO_RX_NACK_RESTART                              0     0      0       0
                 _I2C_MasterSendNack
 ---------------------------------------------------------------------------------
 (12) _I2C_MasterSendNack                                  0     0      0       0
 ---------------------------------------------------------------------------------
 (11) _I2C_DO_RESET                                        0     0      0       0
 ---------------------------------------------------------------------------------
 (11) _I2C_DO_RCEN                                         0     0      0       0
                  _I2C_MasterStartRx
 ---------------------------------------------------------------------------------
 (12) _I2C_MasterStartRx                                   0     0      0       0
 ---------------------------------------------------------------------------------
 (11) _I2C_DO_IDLE                                         0     0      0       0
 ---------------------------------------------------------------------------------
 (11) _I2C_DO_ADDRESS_NACK                                 2     2      0    4467
                                              0 COMRAM     2     2      0
                                NULL *
            _I2C_CallbackReturnReset *
             _I2C_CallbackReturnStop *
                _I2C_DO_SEND_RESTART
                   _I2C_DO_SEND_STOP
              _rd1RegCompleteHandler *
              _rd2RegCompleteHandler *
            _rdBlkRegCompleteHandler *
              _wr1RegCompleteHandler *
              _wr2RegCompleteHandler *
 ---------------------------------------------------------------------------------
 (12) _wr2RegCompleteHandler                               2     0      2     836
                                              9 COMRAM     2     0      2
                    i2_I2C_SetBuffer
      i2_I2C_SetDataCompleteCallback
 ---------------------------------------------------------------------------------
 (12) _wr1RegCompleteHandler                               2     0      2     836
                                              9 COMRAM     2     0      2
                    i2_I2C_SetBuffer
      i2_I2C_SetDataCompleteCallback
 ---------------------------------------------------------------------------------
 (12) _rdBlkRegCompleteHandler                             3     1      2    1123
                                              9 COMRAM     3     1      2
                    i2_I2C_SetBuffer
      i2_I2C_SetDataCompleteCallback
 ---------------------------------------------------------------------------------
 (12) _rd2RegCompleteHandler                               2     0      2     836
                                              9 COMRAM     2     0      2
                    i2_I2C_SetBuffer
      i2_I2C_SetDataCompleteCallback
 ---------------------------------------------------------------------------------
 (12) _rd1RegCompleteHandler                               2     0      2     836
                                              9 COMRAM     2     0      2
                    i2_I2C_SetBuffer
      i2_I2C_SetDataCompleteCallback
 ---------------------------------------------------------------------------------
 (13) i2_I2C_SetDataCompleteCallback                       4     0      4     510
                                              5 COMRAM     4     0      4
                  i2_I2C_SetCallback
 ---------------------------------------------------------------------------------
 (14) i2_I2C_SetCallback                                   5     1      4     206
                                              0 COMRAM     5     1      4
 ---------------------------------------------------------------------------------
 (13) i2_I2C_SetBuffer                                     4     0      4     304
                                              0 COMRAM     4     0      4
 ---------------------------------------------------------------------------------
 (12) _I2C_DO_SEND_STOP                                    0     0      0       0
                     _I2C_MasterStop
 ---------------------------------------------------------------------------------
 (13) _I2C_MasterStop                                      0     0      0       0
 ---------------------------------------------------------------------------------
 (12) _I2C_DO_SEND_RESTART                                 0     0      0       0
            _I2C_MasterEnableRestart
 ---------------------------------------------------------------------------------
 (13) _I2C_MasterEnableRestart                             0     0      0       0
 ---------------------------------------------------------------------------------
 (12) _I2C_CallbackReturnStop                              2     0      2       0
                                              9 COMRAM     2     0      2
 ---------------------------------------------------------------------------------
 (12) _I2C_CallbackReturnReset                             2     0      2       0
                                              9 COMRAM     2     0      2
 ---------------------------------------------------------------------------------
 (12) NULL(Fake)                                           2     0      2       0
 ---------------------------------------------------------------------------------
 Estimated maximum stack depth 14
 ---------------------------------------------------------------------------------

 Call Graph Graphs:

 _main (ROOT)
   _EUSART_Send_Date
     _EUSART_IsTxReady
     _EUSART_Send_String
       _EUSART_IsTxReady
       _EUSART_Write
       _strlen
     _EUSART_Write
     _convert_byte_to_str
       _memset
       _sprintf
         _vfprintf
           _vfpfcnvrt
             ___awdiv
             ___awmod
             _abs
               ___awmod (ARG)
             _fputc
               _putch
   _EUSART_Send_Temp
     _EUSART_IsTxReady
     _EUSART_Send_String
     _EUSART_Write
     _convert_byte_to_str
   _EUSART_Send_Time
     _EUSART_IsTxReady
     _EUSART_Send_String
     _EUSART_Write
     _convert_byte_to_str
   _Get_time_And_Date
     _Get_days
       _I2C_Read1ByteRegister
         _I2C_Close
           _I2C_MasterClearIrq
           _I2C_MasterClose
           _I2C_MasterDisableIrq
         _I2C_MasterWrite
           _I2C_MasterOperation
             _I2C_MasterStart
         _I2C_Open
           _I2C_MasterClearIrq
           _I2C_MasterEnableIrq
           _I2C_MasterOpen
           _I2C_SetInterruptHandler
         _I2C_SetAddressNackCallback
           _I2C_SetCallback
         _I2C_SetBuffer
         _I2C_SetDataCompleteCallback
           _I2C_SetCallback
     _Get_hours
       _I2C_Read1ByteRegister
     _Get_minutes
       _I2C_Read1ByteRegister
     _Get_months
       _I2C_Read1ByteRegister
     _Get_seconds
       _I2C_Read1ByteRegister
     _Get_years
       _I2C_Read1ByteRegister
   _I2C_Write1Byte
     _I2C_Close
     _I2C_MasterWrite
     _I2C_Open
     _I2C_SetAddressNackCallback
     _I2C_SetBuffer
   _Read_Temperature
     _I2C_Read1ByteRegister
   _SYSTEM_Initialize
     _CLOCK_Initialize
     _EUSART_Initialize
       _EUSART_FramingErrorCallbackRegister
       _EUSART_OverrunErrorCallbackRegister
     _EUSART_ReceiveEnable
     _I2C_Initialize
     _INTERRUPT_Initialize
       _INT0_SetInterruptHandler
       _INT1_SetInterruptHandler
       _INT2_SetInterruptHandler
     _NVM_Initialize
       _NVM_StatusClear
     _PIN_MANAGER_Initialize

 _INTERRUPT_InterruptManagerHigh (ROOT)
   NULL(Fake) *
   _I2C_MasterIsr *
     _I2C_MasterFsm
       _I2C_DO_ADDRESS_NACK *
         NULL(Fake) *
         _I2C_CallbackReturnReset *
         _I2C_CallbackReturnStop *
         _I2C_DO_SEND_RESTART *
           _I2C_MasterEnableRestart
         _I2C_DO_SEND_STOP *
           _I2C_MasterStop
         _rd1RegCompleteHandler *
           i2_I2C_SetBuffer
           i2_I2C_SetDataCompleteCallback
             i2_I2C_SetCallback
         _rd2RegCompleteHandler *
           i2_I2C_SetBuffer
           i2_I2C_SetDataCompleteCallback
         _rdBlkRegCompleteHandler *
           i2_I2C_SetBuffer
           i2_I2C_SetDataCompleteCallback
         _wr1RegCompleteHandler *
           i2_I2C_SetBuffer
           i2_I2C_SetDataCompleteCallback
         _wr2RegCompleteHandler *
           i2_I2C_SetBuffer
           i2_I2C_SetDataCompleteCallback
       _I2C_DO_IDLE *
       _I2C_DO_RCEN *
         _I2C_MasterStartRx
       _I2C_DO_RESET *
       _I2C_DO_RX *
         NULL(Fake) *
         _I2C_CallbackReturnReset *
         _I2C_CallbackReturnStop *
         _I2C_DO_RX_NACK_RESTART *
           _I2C_MasterSendNack
         _I2C_DO_RX_NACK_STOP *
           _I2C_MasterSendNack
         _I2C_MasterGetRxData *
         _I2C_MasterSendAck *
         _rd1RegCompleteHandler *
         _rd2RegCompleteHandler *
         _rdBlkRegCompleteHandler *
         _wr1RegCompleteHandler *
         _wr2RegCompleteHandler *
       _I2C_DO_RX_ACK *
         _I2C_MasterSendAck
       _I2C_DO_RX_NACK_RESTART *
       _I2C_DO_RX_NACK_STOP *
       _I2C_DO_SEND_ADR_READ *
         _I2C_MasterSendTxData
       _I2C_DO_SEND_ADR_WRITE *
         _I2C_MasterSendTxData
       _I2C_DO_SEND_RESTART *
       _I2C_DO_SEND_RESTART_READ *
         _I2C_MasterEnableRestart
       _I2C_DO_SEND_RESTART_WRITE *
         _I2C_MasterEnableRestart
       _I2C_DO_SEND_STOP *
       _I2C_DO_TX *
         NULL(Fake) *
         _I2C_CallbackReturnReset *
         _I2C_CallbackReturnStop *
         _I2C_DO_SEND_RESTART_READ *
         _I2C_DO_SEND_RESTART_WRITE *
         _I2C_DO_SEND_STOP *
         _I2C_MasterIsNack *
         _I2C_MasterSendTxData *
         _rd1RegCompleteHandler *
         _rd2RegCompleteHandler *
         _rdBlkRegCompleteHandler *
         _wr1RegCompleteHandler *
         _wr2RegCompleteHandler *
       _I2C_DO_TX_EMPTY *
         NULL(Fake) *
         _I2C_CallbackReturnReset *
         _I2C_CallbackReturnStop *
         _I2C_DO_SEND_RESTART *
         _I2C_DO_SEND_STOP *
         _I2C_MasterSetIrq *
         _rd1RegCompleteHandler *
         _rd2RegCompleteHandler *
         _rdBlkRegCompleteHandler *
         _wr1RegCompleteHandler *
         _wr2RegCompleteHandler *
       _I2C_MasterIsNack *
       i2_I2C_MasterClearIrq *

 Address spaces:
Name               Size   Autos  Total    Cost      Usage
BIGRAM             F5F      0       0      53        0.0%
EEDATA             400      0       0       0        0.0%
BITBANK14          100      0       0      32        0.0%
BANK14             100      0       0      33        0.0%
BITBANK13          100      0       0      30        0.0%
BANK13             100      0       0      31        0.0%
BITBANK12          100      0       0      28        0.0%
BANK12             100      0       0      29        0.0%
BITBANK11          100      0       0      26        0.0%
BANK11             100      0       0      27        0.0%
BITBANK10          100      0       0      24        0.0%
BANK10             100      0       0      25        0.0%
BITBANK9           100      0       0      22        0.0%
BANK9              100      0       0      23        0.0%
BITBANK8           100      0       0      20        0.0%
BANK8              100      0       0      21        0.0%
BITBANK7           100      0       0      18        0.0%
BANK7              100      0       0      19        0.0%
BITBANK6           100      0       0      16        0.0%
BANK6              100      0       0      17        0.0%
BITBANK5           100      0       0      14        0.0%
BANK5              100      0       0      15        0.0%
BITBANK4           100      0       0      12        0.0%
BANK4              100      0       0      13        0.0%
BITBANK3           100      0       0      10        0.0%
BANK3              100      0       0      11        0.0%
BITBANK2           100      0       0       8        0.0%
BANK2              100      0       0       9        0.0%
BITBANK1           100      0       0       6        0.0%
BANK1              100      0       0       7        0.0%
BITBANK0            A0      0       0       4        0.0%
BANK0               A0      0      50       5       50.0%
BITBANK15           60      0       0      34        0.0%
BANK15              60      0       0      35        0.0%
BITCOMRAM           5E      0       0       0        0.0%
COMRAM              5E     40      5C       1       97.9%
BITBIGSFRhllh       1C      0       0      38        0.0%
BITBIGSFRllllll     1C      0       0      51        0.0%
BITBIGSFRlhhhh       C      0       0      41        0.0%
BITBIGSFRlllllh      9      0       0      49        0.0%
BITBIGSFRlhhhlh      7      0       0      42        0.0%
BITBIGSFRhh          7      0       0      36        0.0%
BITBIGSFRhllll       6      0       0      40        0.0%
BITBIGSFRllllhl      4      0       0      48        0.0%
BITBIGSFRlllhl       4      0       0      47        0.0%
BITBIGSFRlhl         4      0       0      44        0.0%
BITBIGSFRhlllh       2      0       0      39        0.0%
BITBIGSFRhlh         2      0       0      37        0.0%
BITBIGSFRlllhh       1      0       0      46        0.0%
BITBIGSFRllllll      1      0       0      50        0.0%
BITBIGSFRlhhhll      1      0       0      43        0.0%
BITBIGSFRllh         1      0       0      45        0.0%
BIGSFR               0      0       0     200        0.0%
BITSFR               0      0       0     200        0.0%
SFR                  0      0       0     200        0.0%
STACK                0      0       0       2        0.0%
NULL                 0      0       0       0        0.0%
ABS                  0      0      AC      52        0.0%
DATA                 0      0      AC       3        0.0%
CODE                 0      0       0       0        0.0%


Microchip Technology PIC18 Macro Assembler V2.45 build 20230818022343 
Symbol Table                                                                                   Tue Apr 23 23:38:39 2024

                            ??_I2C_DO_SEND_ADR_READ 0001                             ??_I2C_DO_SEND_ADR_WRITE 0002  
                                       _SSPSTATbits 0FC7                                                  l33 1B94  
                                                l42 229A                                                  l51 22AC  
                                                l36 2264                                                  l45 2252  
                                                l39 2288                                                  l48 2276  
                                      ___awdiv@sign 0016              fp__EUSART_OverrunErrorCallbackRegister 0000  
       __end_of_EUSART_OverrunErrorCallbackRegister 219E               ??_EUSART_OverrunErrorCallbackRegister 0013  
              ?_EUSART_OverrunErrorCallbackRegister 0011                 _EUSART_OverrunErrorCallbackRegister 2182  
                                  _Read_Temperature 21BA                               ??_I2C_DO_SEND_RESTART 0001  
                                               l210 1BFA                                                 l205 2320  
                                               l160 222C                                                 l332 23A0  
                                               l180 2328                                                 l164 18E8  
                                               l350 2398                                                 l174 1E32  
                                               l190 21E8                                                 l168 1FD0  
                                               l329 2160                                                 l425 1A52  
                                               l371 2394                                                 l187 20F8  
                                               l380 23A4                                                 l196 2200  
                                               l452 1D1E                                                 l532 2376  
                                               l608 2180                                                 l377 239C  
                                               l713 230C                                                 l545 238C  
                                               l811 1EA8                                                 l902 219C  
                                               l726 2302                                                 l639 1F74  
                                               l649 2316                                                 l739 22F8  
                                               l860 20D4                                                 l829 2390  
                                               l694 1EDC                                                 l859 20D2  
                                               l990 1FFC                                                 l966 164A  
                                               l879 2330                                                 l888 1966  
                                               l978 1592                                                 l898 21B8  
                                               l987 1B2C                          ??_INT0_SetInterruptHandler 0013  
                                               _abs 1F12                              fp__I2C_DO_RX_NACK_STOP 0000  
                                      ___awmod@sign 0016                                                 tosl 0FFD  
                                               wreg 0FE8                                ??_EUSART_Send_String 0017  
                      ??_I2C_SetAddressNackCallback 001A                            ??_I2C_CallbackReturnStop 000C  
                                      _I2C_DO_RESET 22CC                                                l1002 21D0  
                                              ?_abs 0017                             ??_rd2RegCompleteHandler 000C  
                                              l1236 1416                                                l3100 1388  
                                              l3110 13B6                                                l3102 138C  
                                              l3120 13EA                                                l3112 13C4  
                                              l3104 1394                                                l3200 215E  
                                              l1249 16FA                                                l3122 13F0  
                                              l3114 13CA                                                l3106 13A6  
                                              l3210 1DF6                                                l3116 13E0  
                                              l3108 13AE                                                l3124 13F6  
                                              l3140 166A                                                l3132 164C  
                                              l3300 128A                                                l3220 1E20  
                                              l3212 1DFA                                                l3204 2392  
                                              l3126 1406                                                l3118 13E8  
                                              l3150 16A2                                                l3142 1678  
                                              l3134 1650                                                l3310 12DE  
                                              l3302 129C                                                l3206 239A  
                                              l3222 1E28                                                l3214 1E0A  
                                              l3230 1B98                                                l3128 140E  
                                              l3152 16B0                                                l3160 16DA  
                                              l3144 1680                                                l3136 165E  
                                              l3304 12AE                                                l3320 132E  
                                              l3208 239E                                                l3400 1FCA  
                                              l3224 1E2C                                                l3216 1E0C  
                                              l3232 1BAA                                                l4120 1D70  
                                              l3090 1358                                                l3162 16EA  
                                              l3154 16C6                                                l3146 1692  
                                              l3138 1666                                                l3170 170C  
                                              l3306 12C2                                                l3314 12F4  
                                              l3250 10C0                                                l3242 1084  
                                              l3402 1FCE                                                l3218 1E10  
                                              l3226 1E30                                                l3234 1BD6  
                                              l3410 20D6                                                l4130 1D8C  
                                              l4122 1D74                                                l3092 1366  
                                              l3164 16F2                                                l3156 16CE  
                                              l3148 169A                                                l3172 171C  
                                              l3308 12DC                                                l3316 1322  
                                              l3260 1128                                                l3252 10CA  
                                              l3244 10A8                                                l3340 184E  
                                              l3420 21EA                                                l3412 20E6  
                                              l4132 1D94                                                l4124 1D76  
                                              l3094 136E                                                l3158 16D4  
                                              l3182 1F12                                                l3174 1726  
                                              l3270 11AE                                                l3262 1140  
                                              l3254 10E8                                                l3246 10B0  
                                              l3086 2396                                                l3406 2322  
                                              l3350 186A                                                l3342 1852  
                                              l3414 20EE                                                l4134 1D98  
                                              l4126 1D78                                                l1727 1352  
                                              l3096 1372                                                l3088 1354  
                                              l3184 1F20                                                l1752 1F2C  
                                              l3176 1742                                                l3168 16FC  
                                              l3272 11BE                                                l3280 11FC  
                                              l3264 1170                                                l3256 1106  
                                              l3248 10BC                                                l3192 2318  
                                              l3360 1882                                                l3352 186C  
                                              l3344 1862                                                l3416 20F6  
                                              l4136 1D9C                                                l4128 1D7A  
                                              l1682 1FA4                                                l3098 1380  
                                              l3178 1774                                                l3290 125A  
                                              l3274 11CE                                                l3266 118C  
                                              l3258 111E                                                l3282 1212  
                                              l3522 1E34                                                l3194 23A2  
                                              l3370 18AA                                                l3362 188A  
                                              l3354 1870                                                l3346 1866  
                                              l3418 21D2                                                l4138 1DA0  
                                              l1755 1F44                                                l4244 1314  
                                              l3292 1260                                                l3284 1230  
                                              l3276 11E0                                                l3268 119E  
                                              l1748 1E72                                                l3524 1E3C  
                                              l3196 2140                                                l3380 18D6  
                                              l3372 18B2                                                l3364 1892  
                                              l3356 1878                                                l3348 1868  
                                              l3540 1A24                                                l3532 19E6  
                                              l3294 1270                                                l3286 1248  
                                              l3278 11FA                                                l3526 1E4C  
                                              l3198 214E                                                l3382 18DA  
                                              l3374 18BA                                                l3366 189A  
                                              l3358 187A                                                l3542 1A38  
                                              l3534 19EA                                                l3710 22F0  
                                              l1767 17A4                                                l3720 20AE  
                                              l1784 1D6E                                                l3296 1278  
                                              l3288 1256                                                l3528 1E6A  
                                              l3392 1FA6                                                l3384 18DE  
                                              l3376 18C2                                                l3368 18A2  
                                              l3544 1A3C                                                l3536 1A00  
                                              l3712 219E                                                l3800 221A  
                                              l3704 238A                                                l1689 1F10  
                                              l3722 20B2                                                l3730 232C  
                                              l1778 23C6                                                l3298 127C  
                                              l3394 1FAA                                                l3386 18E2  
                                              l3378 18CA                                                l3546 1A50  
                                              l3538 1A12                                                l3714 21B0  
                                              l3802 222A                                                l3706 2304  
                                              l3724 20C0                                                l3732 1D20  
                                              l3396 1FBA                                                l3388 18E6  
                                              l3900 21BC                                                l3716 2182  
                                              l3708 22FA                                                l3820 1F5A  
                                              l3726 20CE                                                l3734 1D2C  
                                              l3742 1F76                                                l3750 1EDE  
                                              l3910 1594                                                l3398 1FBE  
                                              l3902 21C0                                                l3718 2194  
                                              l3830 1E74                                                l3814 2372  
                                              l3822 1F5C                                                l3736 1D30  
                                              l3744 1F7E                                                l3752 1EE6  
                                              l3920 15D4                                                l3912 15A4  
                                              l3904 21CC                                                l3816 230E  
                                              l3832 1E88                                                l3840 1EB0  
                                              l3824 1F62                                                l3738 1D62  
                                              l3850 18EA                                                l3746 1F88  
                                              l3754 1EEE                                                l3930 1610  
                                              l3922 15E0                                                l3914 15B0  
                                              l3770 227A                                                l3906 21CE  
                                              l3834 1E94                                                l3842 1EBC  
                                              l3826 1F6C                                                l3818 1F46  
                                              l3852 18F6                                                l3748 1F8A  
                                              l3756 1EF6                                                l3860 1FD2  
                                              l3932 161A                                                l3924 15EA  
                                              l3916 15BA                                                l3940 14EC  
                                              l3772 2286                                                l3764 2256  
                                              l3836 238E                                                l3844 1EBE  
                                              l3828 1F72                                                l3854 190A  
                                              l3758 1F06                                                l3862 1FEA  
                                              l3934 162E                                                l3926 15FE  
                                              l3918 15CE                                                l3950 1528  
                                              l3942 14F8                                                l3790 2274  
                                              l3766 2262                                                l3782 2244  
                                              l3846 1ECC                                                l3838 1EAA  
                                              l3856 193C                                                l3936 1634  
                                              l3928 1604                                                l3960 1562  
                                              l3952 1532                                                l3944 1502  
                                              l3776 228C                                                l3784 2250  
                                              l3864 1B2E                                                l3880 1CE0  
                                              l3848 1ECE                                                l3858 193E  
                                              l3970 1ADE                                                l3962 1576  
                                              l3954 1546                                                l3946 1516  
                                              l3938 14DC                                                l3794 229E  
                                              l3778 2298                                                l3866 1B82  
                                              l3882 1CF2                                                l3890 216A  
                                              l3980 1B26                                                l3972 1AE8  
                                              l3964 157C                                                l3956 154C  
                                              l3948 151C                                                l3796 22AA  
                                              l3788 2268                                                l3884 1D06  
                                              l3876 1CCA                                                l3892 216E  
                                              l3974 1AFC                                                l3966 1AC2  
                                              l3958 1558                                                l3886 1D0A  
                                              l3878 1CCA                                                l3894 2172  
                                              l3976 1B02                                                l3968 1AD2  
                                              l3896 2176                                                l3888 2162  
                                              l3978 1B12                                                l3898 2178  
                                              STR_1 1074                                                STR_2 106C  
                                              STR_3 1051                                                STR_4 1060  
                                              STR_5 107F                                                STR_6 107C  
                                              u1200 1366                                                u1201 1362  
                                              u1210 1380                                                u1211 137C  
                                              u1220 13A6                                                u1300 16C6  
                                              u1221 13A2                                                u1301 16C2  
                                              u1230 13C4                                                u1310 16EA  
                                              u1231 13C0                                                u1311 16E6  
                                              u1240 13E0                                                u1320 170C  
                                              u1400 1E20                                                u1241 13DC  
                                              u1321 1708                                                u1401 1E1C  
                                              u1250 1406                                                u1330 171C  
                                              u1410 1BAA                                                u1251 1402  
                                              u1331 1718                                                u1411 1BA6  
                                              u1260 165E                                                u1340 1742  
                                              u1500 11CE                                                u1420 10A8  
                                              _IOCB 0F7D                                                u1261 165A  
                                              u1341 173E                                                u1501 11CA  
                                              u1421 10A4                                                _LATA 0F89  
                                              u1270 1678                                                u1350 1774  
                                              u1510 120E                                                u1430 10E8  
                                              _LATB 0F8A                                                u1271 1674  
                                              u1351 1770                                                u1511 120A  
                                              u1431 10E4                                                u2151 1D84  
                                              _LATC 0F8B                                                u1280 1692  
                                              u1360 1F20                                                u1520 1230  
                                              u1440 1106                                                u1600 20E6  
                                              _LATD 0F8C                                                u1281 168E  
                                              u1361 1F1C                                                u1521 122C  
                                              u1441 1102                                                u1601 20E2  
                                              _LATE 0F8D                                                u1290 16B0  
                                              u1530 1270                                                u1450 113C  
                                              u1291 16AC                                                u1531 126C  
                                              u1451 1136                                                u1540 12AE  
                                              u1460 113E                                                u1620 1E6A  
                                              u1380 214E                                                u1541 12AA  
                                              u1621 1E66                                                u1381 214A  
                                              u1550 12BE                                                u1470 119E  
                                              u1390 1E0A                                                u1630 1A00  
                                              u1551 12BA                                                u1471 119A  
                                              u2167 1586                                                u1391 1E06  
                                              u1631 19FC                                                u1560 12F0  
                                              u1480 11AE                                                u1640 1A50  
                                              u1720 21B0                                                u1561 12EC  
                                              u1481 11AA                                                u2177 163E  
                                              u1641 1A4C                                                u1721 21AC  
                                              u1490 11BE                                                u1730 2194  
                                              u1491 11BA                                                u1731 2190  
                                              u1740 20C0                                                u1820 190A  
                                              u1900 162E                                                u1580 1862  
                                              u1741 20BC                                                u1821 1906  
                                              u1901 162A                                                u1581 185E  
                                              u1750 20CE                                                u1830 1938  
                                              u1910 1516                                                u1590 1FBA  
                                              u1751 20CA                                                u1911 1512  
                                              u1591 1FB6                                                u1760 1D52  
                                              u1840 1966                                                u1920 1546  
                                              u1841 1962                                                u1921 1542  
                                              u1770 1D62                                                u1930 1576  
                                              u1771 1D5E                                                u1931 1572  
                                              u1851 1B8C                                                u1780 1FA4  
                                              u1940 1AFC                                                u1860 1CE0  
                                              u1837 192E                                                u1781 1FA0  
                                              u1941 1AF8                                                u1861 1CDC  
                                              u1950 1B26                                                u1870 1D1E  
                                              u1767 1D48                                                u1951 1B22  
                                              u1871 1D1A                                                u1880 15CE  
                                              u1881 15CA                                                u1890 15FE  
                                              u1891 15FA                                                _WPUB 0F7C  
                           ??_wr2RegCompleteHandler 000C                             __end_of_NVM_StatusClear 238E  
                                              abs@a 0017                                                _dbuf 0084  
                                              _main 1D70                            ?_I2C_CallbackReturnReset 000A  
                                              _prec 0043                                                fsr0h 0FEA  
                                              fsr1h 0FE2                                                indf0 0FEF  
                                              fsr2h 0FDA                                                fsr0l 0FE9  
                                              indf2 0FDF                                                fsr1l 0FE1  
                                              fsr2l 0FD9                                    __end_of_I2C_Open 18EA  
                                              btemp 005D                               ?i2_I2C_MasterClearIrq 0001  
                                      _unlockKeyLow 0058                           ?_INT2_SetInterruptHandler 0011  
                                              prodh 0FF4                                                prodl 0FF3  
                                              start 00B6                  _EUSART_DefaultOverrunErrorCallback 0000  
                           _I2C_SetInterruptHandler 2318                        fp__I2C_DO_SEND_RESTART_WRITE 0000  
                                      ___param_bank 0000                                               ??_abs 0019  
                               __end_of_Get_minutes 228A                                 __end_of_Get_seconds 2266  
                                  ?_I2C_MasterClose 0001                                       ?_EUSART_Write 0001  
                                  ?_I2C_MasterStart 0001                                       _I2C_DO_RX_ACK 2342  
                                  ?_I2C_MasterWrite 0001                                               ?_main 0001  
                                   __end_of___awdiv 1418                                               _EEADR 0FA9  
                                   __end_of___awmod 16FC                               _I2C_Read1ByteRegister 19E4  
                                   ___awdiv@divisor 0013                                               i2l210 1CC6  
                                             i2l220 22EE                                               i2l213 237C  
                                             i2l302 22D6                                               i2l223 22BC  
                                             i2l232 14DA                                               i2l217 1AC0  
                                             i2l226 22CA                                               i2l500 20AC  
                                             i2l316 23BC                                               i2l308 1C60  
                                             i2l341 23C4                                               i2l229 14A2  
                                             i2l245 17DC                                               i2l190 2218  
                                             i2l246 184A                                               i2l319 23B8  
                                             i2l503 1DF2                                               i2l335 23B0  
                                             i2l263 19E2                                               i2l353 23C0  
                                             i2l257 22E2                                               i2l281 2368  
                                             i2l362 2388                                               i2l338 2370  
                                             i2l290 2350                                               i2l187 211C  
                                             i2l347 23B4                                               i2l356 2240  
                                             i2l284 2360                                               i2l380 23A8  
                                             i2l293 2348                                               i2l359 2382  
                                             i2l383 23AC                                               i2l287 2358  
                                             i2l703 008A                                               i2l296 2340  
                                             i2l491 2080                                               i2l299 2338  
                                             i2l494 2054                                               i2l497 2028  
                                             i2l699 006A                                     ___awdiv@counter 0015  
                                             _RCREG 0FAE                                               _RCSTA 0FAB  
                                             _UART1 1001                                        vfpfcnvrt@fmt 001C  
                                             _SPBRG 0FAF                                   ??_I2C_DO_TX_EMPTY 0001  
                                             _TRISA 0F92                                               _TRISB 0F93  
                                             _TRISC 0F94                                               _TRISD 0F95  
                                             _TRISE 0F96                                               _TXREG 0FAD  
                                             _TXSTA 0FAC                                          _Get_months 2266  
                                 __end_of_I2C_DO_RX 184C                                   __end_of_I2C_DO_TX 14DC  
                                             _flags 0053                                               _fputc 16FC  
                                 __end_of_I2C_Close 1FD2                                    fp__I2C_MasterIsr 0000  
                    I2C_MasterOperation@returnValue 0012                                               _width 0041  
                                             _putch 23C6                             _I2C_MasterEnableRestart 23C2  
                          _INT1_SetInterruptHandler 22FA                                       _unlockKeyHigh 0057  
                                             pclath 0FFA                                               pclatu 0FFB  
                                             tablat 0FF5                                    ?_I2C_SetCallback 0011  
                      I2C_SetAddressNackCallback@cb 0016                                               plusw0 0FEB  
                                             plusw2 0FDB                                               ttemp5 005E  
                                             ttemp6 0061                                               ttemp7 0065  
                                             status 0FD8                                               wtemp8 005E  
                                   __end_of_sprintf 1F12                                   ?_I2C_DO_SEND_STOP 0001  
                                ??_I2C_DO_SEND_STOP 0001                               I2C_Write1Byte@address 001B  
                                  __end_of_Get_days 22AE                            fp__rd1RegCompleteHandler 0000  
                                   __initialization 211E                               i2I2C_SetBuffer@buffer 0001  
                                      __end_of_main 1DB2                            fp__wr1RegCompleteHandler 0000  
                         ?_I2C_DO_SEND_RESTART_READ 0001                                      ??_EUSART_Write 0011  
                                    ?_I2C_DO_RX_ACK 0001                                              ??_main 0041  
                                 ?_I2C_MasterIsNack 0001                                       __activetblptr 0003  
                                 ?_I2C_MasterSetIrq 0001                                  ??_I2C_MasterIsNack 0001  
EUSART_OverrunErrorCallbackRegister@callbackHandler 0011  EUSART_FramingErrorCallbackRegister@callbackHandler 0011  
                                ??_I2C_MasterSetIrq 0001                          _EUSART_OverrunErrorHandler 0045  
                   __end_of_I2C_CallbackReturnReset 23BA                                              ?_fputc 0011  
                                            _EEDATA 0FA8                                              _EECON2 0FA7  
                                  ___awdiv@dividend 0011                       I2C_SetDataCompleteCallback@cb 0016  
                   i2I2C_SetDataCompleteCallback@cb 0006                                              ?_putch 0001  
                                            _ANSELH 0F7F                                              i2l4110 0032  
                                            i2l3240 2384                                              i2l4112 0040  
                                            i2l3330 20FA                                              i2l4114 004E  
                                            i2l3236 23C2                                              i2l3332 210A  
                                            i2l3500 2012                                              i2l4116 0078  
                                            i2l3238 23BE                                              i2l3334 2112  
                                            i2l3190 1CA2                                              i2l3510 20AA  
                                            i2l3502 2026                                              i2l3422 222E  
                                            i2l3430 2366                                              i2l3336 211A  
                                            i2l3600 14D8                                              i2l3440 234A  
                                            i2l3186 1C64                                              i2l3338 2202  
                                            i2l3506 2082                                              i2l3514 1DB2  
                                            i2l3450 237E                                              i2l3426 236C  
                                            i2l4250 147C                                              i2l3610 17B4  
                                            i2l3434 235A                                              i2l3442 234E  
                                            i2l3188 1C76                                              i2l3508 2096  
                                            i2l3516 1DDC                                              i2l4252 19BC  
                                            i2l3612 17BA                                              i2l3428 2362  
                                            i2l3436 235E                                              i2l3460 233E  
                                            i2l3452 2332                                              i2l3518 1DF0  
                                            i2l3446 23AE                                              i2l3550 22E4  
                                            i2l3622 17E2                                              i2l3614 17D2  
                                            i2l3454 2336                                              i2l4246 1C4A  
                                            i2l3464 23B2                                              i2l3472 23AA  
                                            i2l3552 22E8                                              i2l3560 22B2  
                                            i2l4248 1824                                              i2l3632 17F2  
                                            i2l3616 17D6                                              i2l3608 17A6  
                                            i2l3640 22DC                                              i2l3474 23BA  
                                            i2l3482 2056                                              i2l3490 202A  
                                            i2l3554 22EC                                              i2l3562 22BA  
                                            i2l3570 22C8                                              i2l3626 17EA  
                                            i2l3642 22E0                                              i2l3466 2352  
                                            i2l3458 233A                                              i2l3810 1A7C  
                                            i2l3484 206A                                              i2l3492 203E  
                                            i2l3652 1978                                              i2l3468 2356  
                                            i2l3812 1A82                                              i2l3804 1A54  
                                            i2l3478 23B6                                              i2l3486 207E  
                                            i2l3494 2052                                              i2l3654 197C  
                                            i2l3646 1968                                              i2l3558 22AE  
                                            i2l3566 22BE                                              i2l3582 1438  
                                            i2l3574 1418                                              i2l3638 22D8  
                                            i2l3670 2342                                              i2l3806 1A58  
                                            i2l3648 1970                                              i2l3664 198A  
                                            i2l3568 22C2                                              i2l3592 1448  
                                            i2l3672 2346                                              i2l3680 22D4  
                                            i2l3808 1A68                                              i2l3498 1FFE  
                                            i2l3658 1982                                              i2l3594 14A6  
                                            i2l3586 1440                                              i2l3578 1430  
                                            i2l3762 23A6                                              i2l3596 14B8  
                                            i2l3676 22CC                                              i2l3692 1C10  
                                            i2l3684 1BFC                                              i2l3598 14D2  
                                            i2l3678 22D0                                              i2l3686 1C00  
                                            i2l3688 1C08                                              i2l3698 1C18  
                                            i2l3874 2378                                              _TABLAT 0FF5  
                                            _OSCCON 0FD3                              ??i2_I2C_MasterClearIrq 0001  
                                     vfpfcnvrt@done 0020                           ??_I2C_SetInterruptHandler 0013  
                                            _SPBRGH 0FB0                                              _SSPADD 0FC8  
                                  ?_NVM_StatusClear 0001                                              _SSPBUF 0FC9  
                               _I2C_MasterEnableIrq 2392                                         _Get_minutes 2278  
                                       _Get_seconds 2254                                 _I2C_MasterGetRxData 23AE  
                                      vfprintf@cfmt 002B                                       _I2C_MasterFsm 1A54  
                                         ??___awdiv 0015                                       _I2C_MasterIsr 2378  
                                         ??___awmod 0015                                              _memset 1F76  
                                            clear_0 2124                                              clear_1 2130  
                                 I2C_SetCallback@cb 0011                                    ___awdiv@quotient 0017  
                           fp__I2C_DO_SEND_ADR_READ 0000                                 EUSART_Send_String@i 0019  
                                   ___awmod@divisor 0013                              ?_I2C_Read1ByteRegister 001A  
                                            isa$std 0001                                   ?_EUSART_IsTxReady 0001  
                                   ___awmod@counter 0015                                       _I2C_SetBuffer 20D6  
                                 ?_CLOCK_Initialize 0001                                              _strlen 1D20  
                      __end_of_I2C_MasterDisableIrq 239E                                              fputc@c 0011  
                                ??_EUSART_IsTxReady 0011                                ?_I2C_MasterEnableIrq 0001  
                      _INT2_DefaultInterruptHandler 0000                                 _I2C_DO_ADDRESS_NACK 1BFC  
                              ?_I2C_MasterGetRxData 0001                                           ?_I2C_Open 0001  
                                ??_CLOCK_Initialize 0011                  __end_of_I2C_SetAddressNackCallback 2202  
                        _I2C_SetAddressNackCallback 21EA                                        __mediumconst 0000  
                                       ?_Get_months 001D                                              tblptrh 0FF7  
                                            tblptrl 0FF6                                              tblptru 0FF8  
                         ??_I2C_MasterEnableRestart 0001                                              putch@c 0001  
                                  __end_of_vfprintf 1E74            INT2_SetInterruptHandler@InterruptHandler 0011  
          INT1_SetInterruptHandler@InterruptHandler 0011            INT0_SetInterruptHandler@InterruptHandler 0011  
           I2C_SetInterruptHandler@InterruptHandler 0011                                           ??_sprintf 0030  
                                 ?_EUSART_Send_Date 0001                                    ??_NVM_Initialize 0011  
                          __end_of_Read_Temperature 21D2                              convert_byte_to_str@val 003E  
                  ??_INTERRUPT_InterruptManagerHigh 0007                     ?_INTERRUPT_InterruptManagerHigh 0001  
                            convert_byte_to_str@str 003D                                   _SYSTEM_Initialize 2162  
                                 ?_EUSART_Send_Temp 0001                                   ?_EUSART_Send_Time 0001  
                                        __accesstop 0060                             __end_of__initialization 2136  
                                ??_EUSART_Send_Date 003F                                 _I2C_MasterOperation 1DF4  
                                ?_SYSTEM_Initialize 0001                                  ??_EUSART_Send_Temp 003F  
                                ??_EUSART_Send_Time 003F                                       ___rparam_used 0001  
                              ?_I2C_DO_ADDRESS_NACK 0001                                       __end_of_UART1 1031  
                           _rdBlkRegCompleteHandler 1DB2                          fp__rdBlkRegCompleteHandler 0000  
                                    __pcstackCOMRAM 0001                                   __end_of_Get_hours 229C  
                                    ?_I2C_MasterFsm 0001                                      ?_I2C_MasterIsr 0001  
                                 __end_of_Get_years 2254                                     ??_I2C_DO_RX_ACK 0001  
                            _I2C_CallbackReturnStop 23BA                                 ??_SYSTEM_Initialize 0013  
                                     __end_of_fputc 17A6                                       __end_of_putch 23C8  
                                    ?_I2C_SetBuffer 0011                       __end_of_I2C_DO_SEND_ADR_WRITE 22CC  
                        ?_I2C_DO_SEND_RESTART_WRITE 0001                                ?_I2C_MasterOperation 0001  
                             ??_I2C_MasterEnableIrq 0011                               ??_I2C_MasterGetRxData 0001  
                                        ??_I2C_Open 0013                    __end_of_INT2_SetInterruptHandler 22FA  
                        __end_of_I2C_MasterClearIrq 23A6                                           ?_Get_days 001D  
                                           ??_fputc 0014                           __end_of_SYSTEM_Initialize 2182  
                                           ??_putch 0011                                   _I2C_MasterSendAck 237E  
                                        __pbssBANK0 0060                                __end_of_EUSART_Write 2332  
                                     ??_I2C_DO_IDLE 0001                                       ??_I2C_DO_RCEN 0001  
                     __end_of_rd2RegCompleteHandler 2056                        __end_of_I2C_MasterSendTxData 2372  
                                ?_I2C_MasterSendAck 0001                               _INT0_InterruptHandler 004F  
                                 _I2C_MasterStartRx 23B2                               ??_I2C_DO_ADDRESS_NACK 0001  
                     __end_of_wr2RegCompleteHandler 20AE                                 _I2C_DO_RX_NACK_STOP 233A  
                             _rd1RegCompleteHandler 2056                                  ?_I2C_MasterStartRx 0001  
                        __end_of_I2C_MasterSendNack 238A                               _DS1307_obj@DS1307$F91 00AA  
                             _wr1RegCompleteHandler 1FFE                                 ??_I2C_MasterSendAck 0001  
                          rd1RegCompleteHandler@ptr 000A                         __end_of_I2C_DO_SEND_RESTART 235A  
                                   _I2C_DO_TX_EMPTY 1968                                 I2C_SetBuffer@buffer 0011  
                               ??_I2C_MasterStartRx 0001                                _EUSART_AutoBaudQuery 0000  
                                           _BAUDCON 0FB8                                             ?_memset 0011  
                             ??_I2C_MasterOperation 0011                      I2C_SetDataCompleteCallback@ptr 0018  
                  i2I2C_SetDataCompleteCallback@ptr 0008                                             ?_strlen 0011  
                          ??_I2C_DO_RX_NACK_RESTART 0001                                     _EUSART_IsTxDone 0000  
                 __end_of_I2C_DO_SEND_RESTART_WRITE 2362                                ?_I2C_DO_RX_NACK_STOP 0001  
                        ??_INT1_SetInterruptHandler 0013                                     _EUSART_ErrorGet 0000  
                                           _TBLPTRH 0FF7                                             _TBLPTRL 0FF6  
                                           _TBLPTRU 0FF8                           __end_of_I2C_MasterSendAck 2384  
                                           _OSCTUNE 0F9B                                          ??_Get_days 001E  
                                           _SSPCON1 0FC6                                             _SSPCON2 0FC5  
                                           _SSPSTAT 0FC7                           __end_of_I2C_MasterStartRx 23B6  
                              I2C_Close@returnValue 0011                        ?_I2C_SetDataCompleteCallback 0016  
                                         _I2C_DO_RX 17A6                                           _I2C_DO_TX 1418  
                  __end_of_I2C_DO_SEND_RESTART_READ 236A                        I2C_Read1ByteRegister@address 001B  
                                         _I2C_Close 1FA6                           ??_rdBlkRegCompleteHandler 000C  
                         ?_INT0_SetInterruptHandler 0011                                _I2C_MasterDisableIrq 239A  
                                 ??i2_I2C_SetBuffer 0005                                     ??_I2C_MasterFsm 0004  
                                   ??_I2C_MasterIsr 0007                                             __Hparam 0000  
                                           __Lparam 0000                                 __end_of_I2C_DO_IDLE 22F0  
                               __end_of_I2C_DO_RCEN 22E4                                             ___awdiv 1354  
                                           ___awmod 164C                                     ??_I2C_SetBuffer 0015  
                                         ?_vfprintf 0028                             I2C_SetBuffer@bufferSize 0013  
                                      __psmallconst 1000                                      _I2C_MasterOpen 2140  
                                           _decimal 0054                                             __pcinit 211E  
                                    _I2C_MasterStop 23BE                                      _I2C_Initialize 221A  
                                           __ramtop 1000                                             __ptext0 1D70  
                                           __ptext1 2162                                             __ptext2 1F46  
                                           __ptext3 2372                                             __ptext4 238A  
                                           __ptext5 1EAA                                             __ptext6 22F0  
                                           __ptext7 22FA                                             __ptext8 2304  
                                           __ptext9 221A                               ??_I2C_DO_RX_NACK_STOP 0001  
                                           _hex_str 0059                                    ___awmod@dividend 0011  
                                I2C_SetCallback@idx 0015                            ??_PIN_MANAGER_Initialize 0011  
                     I2C_CallbackReturnReset@funPtr 000A                                  I2C_SetCallback@ptr 0013  
                          wr1RegCompleteHandler@ptr 000A                            fp__I2C_DO_SEND_ADR_WRITE 0000  
                               _convert_byte_to_str 1FD2                                           _TC74_Temp 0055  
                                     _received_data 0056                                             _sprintf 1EDE  
                              end_of_initialization 2136                            _INT2_SetInterruptHandler 22F0  
                                        ?_I2C_DO_RX 0001                                          ?_I2C_DO_TX 0001  
                                Get_minutes@address 001E                                             fputc@fp 0013  
                                           memset@c 0012                                             memset@n 0014  
                                           memset@p 0016                                          ?_I2C_Close 0001  
                            ?_rd1RegCompleteHandler 000A                             __end_of_I2C_DO_TX_EMPTY 19E4  
                             ?_I2C_MasterDisableIrq 0001                                   _EUSART_Initialize 1E74  
                            ?_wr1RegCompleteHandler 000A                                        ?_Get_minutes 001D  
                                      ?_Get_seconds 001D                                  Get_minutes@minutes 001F  
                          fp__rd2RegCompleteHandler 0000                                  ?_EUSART_Initialize 0001  
                              ?_convert_byte_to_str 003D                                   __end_of_vfpfcnvrt 1354  
                                         _RCSTAbits 0FAB                                             postdec2 0FDD  
                           ??_I2C_Read1ByteRegister 001B                              __end_of_I2C_MasterOpen 2162  
                                Get_seconds@address 001E                            fp__wr2RegCompleteHandler 0000  
                                           postinc0 0FEE                                             postinc1 0FE6  
                                           postinc2 0FDE                                    vfpfcnvrt@convarg 0023  
                            __end_of_I2C_MasterStop 23C2                              __end_of_I2C_Initialize 222E  
                                        ??_vfprintf 002B                           fp__I2C_CallbackReturnStop 0000  
                                           strlen@a 0013                                             strlen@s 0011  
                               ??_EUSART_Initialize 0013                               _INT1_InterruptHandler 004D  
                   __end_of_rdBlkRegCompleteHandler 1DF4                                _I2C_MasterSendTxData 236A  
                                   fp__I2C_DO_RESET 0000                                    Get_hours@address 001E  
                                Get_seconds@seconds 001F                                        ??_Get_months 001E  
                       ?_I2C_SetAddressNackCallback 0016                                           _TRISDbits 0F95  
                                 Get_months@address 001E                                 _EUSART_Deinitialize 0000  
                         __end_of_EUSART_Initialize 1EAA                                   ?_Read_Temperature 0001  
                                       _I2C_DO_IDLE 22E4                                         _I2C_DO_RCEN 22D8  
                        rdBlkRegCompleteHandler@ptr 000A                                           _TXSTAbits 0FAC  
                                ??_Read_Temperature 001D                             ?_I2C_CallbackReturnStop 000A  
                          _I2C_DO_SEND_RESTART_READ 2362                         fp__I2C_DO_SEND_RESTART_READ 0000  
                             ??_convert_byte_to_str 003F                                      _I2C_Write1Byte 1CC8  
                                 i2_I2C_SetCallback 1C62                        I2C_CallbackReturnStop@funPtr 000A  
                                __end_of_Get_months 2278                                     ?_I2C_MasterOpen 0001  
                      __end_of_INTERRUPT_Initialize 1EDE                                     ?_I2C_MasterStop 0001  
                                   ?_I2C_Initialize 0001                             _I2C_CallbackReturnReset 23B6  
                          I2C_Read1ByteRegister@reg 001A                          fp__I2C_CallbackReturnReset 0000  
                      _INT0_DefaultInterruptHandler 0000                                  ?i2_I2C_SetCallback 0001  
                                       vfpfcnvrt@ap 001D                                         vfpfcnvrt@cp 0022  
                                       vfpfcnvrt@fp 001B                     ??i2_I2C_SetDataCompleteCallback 000A  
                                       _BAUDCONbits 0FB8                                           _Get_hours 228A  
                                      _EUSART_Write 232A                                           _Get_years 2242  
                             ?_I2C_MasterSendTxData 0001                                      __end_of_memset 1FA6  
                       ??_I2C_DO_SEND_RESTART_WRITE 0001                                 ??i2_I2C_SetCallback 0005  
                                    __end_of_strlen 1D70                                 start_initialization 211E  
                                       __end_of_abs 1F46                                       ?_I2C_DO_RESET 0001  
                          ?_I2C_SetInterruptHandler 0011                                         ??_I2C_DO_RX 0001  
                                       ??_I2C_DO_TX 0002                                   ??_I2C_MasterClose 0011  
                            ??_I2C_MasterDisableIrq 0011                                         ??_I2C_Close 0011  
                                 ??_I2C_MasterStart 0011                                   ??_I2C_MasterWrite 0013  
                    __end_of_I2C_CallbackReturnStop 23BE                              _I2C_DO_RX_NACK_RESTART 2332  
                                  ?_I2C_DO_TX_EMPTY 0001                              __end_of_I2C_Write1Byte 1D20  
                      __end_of_EUSART_ReceiveEnable 2392                                  _I2C_MasterClearIrq 23A2  
                         __end_ofi2_I2C_SetCallback 1CC8                                         vfprintf@fmt 0029  
                        _EUSART_FramingErrorHandler 0047                         __end_of_I2C_MasterEnableIrq 2396  
                               ?_I2C_MasterClearIrq 0001                         __end_of_I2C_MasterGetRxData 23B2  
                             __end_of_I2C_DO_RX_ACK 234A                                            ??_memset 0016  
                                        ?_Get_hours 001D                                   _Get_time_And_Date 1B2E  
                                  _I2C_DO_SEND_STOP 234A                                          ?_Get_years 001D  
                                        memset@dest 0011                                   ??_I2C_SetCallback 0015  
                               I2C_Open@returnValue 0014                                  _I2C_MasterSendNack 2384  
                                          ??_strlen 0013                            ?_I2C_MasterEnableRestart 0001  
                                 _i2c_fsmStateTable 1031                                  ?_Get_time_And_Date 0020  
                            fp__I2C_DO_SEND_RESTART 0000                               _I2C_DO_SEND_ADR_WRITE 22BE  
                                    Get_hours@hours 001F                                         __pbssCOMRAM 0041  
                  __end_of_INT0_SetInterruptHandler 230E                                      ??_I2C_DO_RESET 0001  
                               ?_I2C_MasterSendNack 0001                           Read_Temperature@temp_data 001D  
                                   i2_I2C_SetBuffer 20FA                                 ??_Get_time_And_Date 0026  
                      __end_of_I2C_DO_SEND_ADR_READ 22BE                                ??_I2C_MasterClearIrq 0011  
                       __end_of_I2C_DO_ADDRESS_NACK 1C62                                    _I2C_MasterIsNack 222E  
                         _I2C_DO_SEND_RESTART_WRITE 235A                               _INT2_InterruptHandler 004B  
                                    Get_minutes@reg 001D                                      Get_seconds@reg 001D  
                                  _I2C_MasterSetIrq 23AA                                     ?_I2C_Write1Byte 001A  
                             _rd2RegCompleteHandler 202A                              _PIN_MANAGER_Initialize 1F46  
                             _wr2RegCompleteHandler 2082                           ??_I2C_CallbackReturnReset 000C  
                       __end_of_I2C_MasterOperation 1E34                                ??_I2C_MasterSendNack 0001  
                          rd2RegCompleteHandler@ptr 000A                                           __pintcode 0008  
                                          ?___awdiv 0011                                            ?___awmod 0011  
                         __end_of_Get_time_And_Date 1B96                              ??_I2C_MasterSendTxData 0001  
                         __end_of_i2c_fsmStateTable 1051                                        fp__I2C_DO_RX 0000  
                                      fp__I2C_DO_TX 0000                          __end_of_EUSART_Send_String 1968  
                                 ??_NVM_StatusClear 0011                                         __smallconst 1000  
                        ??_INT2_SetInterruptHandler 0013                     __end_of_I2C_SetInterruptHandler 2322  
                            _EUSART_TransmitDisable 0000               __end_ofi2_I2C_SetDataCompleteCallback 221A  
                     i2_I2C_SetDataCompleteCallback 2202                             I2C_MasterOperation@read 0011  
                                          _I2C_Open 184C                                            ?_sprintf 002C  
                                         _dummy_str 005B                             ??_rd1RegCompleteHandler 000C  
                                  _EUSART_IsRxReady 0000                                _INTERRUPT_Initialize 1EAA  
                                  _EUSART_IsTxReady 20AE                             ??_wr1RegCompleteHandler 000C  
                                  _CLOCK_Initialize 230E                           ?_INT1_SetInterruptHandler 0011  
                                          _PIE1bits 0F9D                                            _PIE2bits 0FA0  
                                 _eusartRxLastError 0049                                            i2u210_40 0040  
                                          i2u210_41 003C                                            i2u211_40 004E  
                                          i2u211_41 004A                                            i2u213_40 0078  
                                          i2u212_48 0054                                            i2u213_41 0074  
                                          i2u212_49 0066                                            i2u214_40 0086  
                                          i2u214_41 0082                                            i2u137_40 1C76  
                                          i2u161_40 223E                                            i2u137_41 1C72  
                                          i2u161_41 2238                                            i2u161_46 2240  
                                          i2u170_48 1998                                            i2u170_49 19AA  
                                          i2u171_48 1C26                                            i2u180_40 1A7C  
                                          i2u171_49 1C38                                            i2u180_41 1A78  
                                          i2u157_40 210A                                            i2u165_40 142C  
                                          i2u157_41 2106                                            i2u165_41 1428  
                                          i2u181_48 1AAA                                            i2u181_49 1ABC  
                                          i2u167_40 14D2                                            i2u166_48 1456  
                                          i2u167_41 14CE                                            i2u166_49 146A  
                                          i2u168_40 17D2                                            i2u168_41 17CE  
                                          _PIR1bits 0F9E                                            i2u169_48 1800  
                                          i2u169_49 1812                                            i2u179_40 1A68  
                                          i2u179_41 1A64                                            _PIR2bits 0FA1  
                             __end_of_I2C_MasterFsm 1AC2                               __end_of_I2C_MasterIsr 237E  
                                          _RCONbits 0FD0                         __end_of_I2C_DO_RX_NACK_STOP 2342  
                   __end_of_I2C_MasterEnableRestart 23C6                                    _EUSART_Send_Date 1594  
                                    fp__I2C_DO_IDLE 0000                                      fp__I2C_DO_RCEN 0000  
                                  _EUSART_Send_Temp 1AC2                                    _EUSART_Send_Time 14DC  
                     __end_of_I2C_Read1ByteRegister 1A54                                      Get_years@years 001F  
                                         _vfpfcnvrt 1084                                         ??_Get_hours 001E  
                             __end_of_I2C_SetBuffer 20FA                                         ??_Get_years 001E  
                            ?_I2C_DO_SEND_ADR_WRITE 0001                             __end_ofi2_I2C_SetBuffer 211E  
                          I2C_MasterSendTxData@data 0001                                          _DS1307_obj 00A4  
                                  Get_months@months 001F                                _EUSART_ReceiveEnable 238E  
                          wr2RegCompleteHandler@ptr 000A                                            _Get_days 229C  
                                       _EUSART_Read 0000                                          vfpfcnvrt@c 0027  
                                        vfpfcnvrt@x 0021                                         _INTCON2bits 0FF1  
                                       _INTCON3bits 0FF0                          ??_I2C_DO_SEND_RESTART_READ 0001  
                             ?_INTERRUPT_Initialize 0001                            ?_rdBlkRegCompleteHandler 000A  
                         i2I2C_SetBuffer@bufferSize 0003                            _INT0_SetInterruptHandler 2304  
                                        _I2C_Status 0060                                        ?_I2C_DO_IDLE 0001  
                                      ?_I2C_DO_RCEN 0001                              ?_rd2RegCompleteHandler 000A  
                                        _EECON1bits 0FA6                                    ??_I2C_MasterOpen 0011  
                            ?_wr2RegCompleteHandler 000A                                    ??_I2C_MasterStop 0001  
                                  ??_I2C_Initialize 0011                           fp__I2C_DO_RX_NACK_RESTART 0000  
                                          __Hrparam 0000                                          vfprintf@ap 002A  
                                          __Lrparam 0000                                          vfprintf@fp 0028  
                             _EUSART_IsTxReady$2097 0011                                __end_of_I2C_DO_RESET 22D8  
                              _I2C_DO_SEND_ADR_READ 22AE                                          ?_vfpfcnvrt 001B  
                  I2C_Read1ByteRegister@returnValue 001C                        __end_ofi2_I2C_MasterClearIrq 23AA  
                                 I2C_Write1Byte@reg 001A                                     _I2C_MasterClose 239E  
                     I2C_SetAddressNackCallback@ptr 0018                               ?_EUSART_ReceiveEnable 0001  
                                        sprintf@fmt 002D                                     I2C_Open@address 0013  
                               fp__I2C_DO_SEND_STOP 0000                                i2I2C_SetCallback@idx 0005  
                                   _I2C_MasterStart 2396                                i2I2C_SetCallback@ptr 0003  
                                   _I2C_MasterWrite 2322                                  _EUSART_AutoBaudSet 0000  
                                          __ptext10 238E                                            __ptext11 1E74  
                                          __ptext20 2266                                            __ptext12 2182  
                                          __ptext21 2278                                            __ptext13 219E  
                                          __ptext30 2318                                            __ptext22 228A  
                                          __ptext14 230E                                            __ptext31 2140  
                                          __ptext23 229C                                            __ptext15 21BA  
                                          __ptext40 14DC                                            __ptext32 2392  
                                          __ptext24 19E4                                            __ptext16 1CC8  
                                          __ptext41 1AC2                                            __ptext33 2322  
                                          __ptext25 21D2                                            __ptext17 1B2E  
                                          __ptext50 164C                                            __ptext42 1594  
                                          __ptext34 1DF4                                            __ptext26 20D6  
                                          __ptext18 2242                                            __ptext51 1354  
                                          __ptext43 1FD2                                            __ptext35 2396  
                                          __ptext27 21EA                                            __ptext19 2254  
                                          __ptext60 23A6                                            __ptext52 1F76  
                                          __ptext44 1EDE                                            __ptext36 1FA6  
                                          __ptext28 1B96                                            __ptext61 1BFC  
                                          __ptext53 18EA                                            __ptext45 1E34  
                                          __ptext37 239A                                            __ptext29 184C  
                                          __ptext70 22D8                                            __ptext62 22CC  
                                          __ptext54 1D20                                            __ptext46 1084  
                                          __ptext38 239E                                            __ptext71 17A6  
                                          __ptext63 2332                                            __ptext55 232A  
                                          __ptext47 16FC                                            __ptext39 23A2  
                                          __ptext80 237E                                            __ptext72 1418  
                                          __ptext64 233A                                            __ptext56 20AE  
                                          __ptext48 23C6                                            __ptext81 23AE  
                                          __ptext73 22BE                                            __ptext65 2342  
                                          __ptext49 1F12                                            __ptext90 2082  
                                          __ptext82 2384                                            __ptext74 22AE  
                                          __ptext66 234A                                            __ptext58 2378  
                                          __ptext91 2202                                            __ptext83 23B2  
                                          __ptext75 22E4                                            __ptext67 2352  
                                          __ptext59 1A54                                            __ptext92 1C62  
                                          __ptext84 1DB2                                            __ptext76 1968  
                                          __ptext68 235A                                            __ptext93 20FA  
                                          __ptext85 1FFE                                            __ptext77 23AA  
                                          __ptext69 2362                                            __ptext94 23BE  
                                          __ptext86 202A                                            __ptext78 222E  
                                          __ptext95 23C2                                            __ptext87 2056  
                                          __ptext79 236A                                            __ptext96 0000  
                                          __ptext88 23B6                                            __ptext89 23BA  
                                   Get_days@address 001E                 __end_of_I2C_SetDataCompleteCallback 21EA  
                    ?i2_I2C_SetDataCompleteCallback 0006                         _I2C_SetDataCompleteCallback 21D2  
                           ?_I2C_DO_RX_NACK_RESTART 0001                                       Get_months@reg 001D  
                             _EUSART_TransmitEnable 0000                         __end_of_convert_byte_to_str 1FFE  
                          __end_of_I2C_DO_SEND_STOP 2352                                        Get_days@days 001F  
                                   _I2C_SetCallback 1B96                       ??_I2C_SetDataCompleteCallback 001A  
                             EUSART_Send_String@str 0015                                      _NVM_Initialize 2372  
                                          isa$xinst 0000                                            int$flags 005D  
                             ?_I2C_DO_SEND_ADR_READ 0001                                            _vfprintf 1E34  
            fp__EUSART_FramingErrorCallbackRegister 0000         __end_of_EUSART_FramingErrorCallbackRegister 21BA  
             ??_EUSART_FramingErrorCallbackRegister 0013                ?_EUSART_FramingErrorCallbackRegister 0011  
               _EUSART_FramingErrorCallbackRegister 219E                            __end_of_I2C_MasterIsNack 2242  
                              fp__EUSART_Initialize 0000                        _INT1_DefaultInterruptHandler 0000  
                          __end_of_I2C_MasterSetIrq 23AE                                    ?i2_I2C_SetBuffer 0001  
                                        _INTCONbits 0FF2                              ??_INTERRUPT_Initialize 0013  
                    __end_of_I2C_DO_RX_NACK_RESTART 233A                                        Get_hours@reg 001D  
                                  ??_I2C_Write1Byte 001B                                            intlevel2 0000  
                                         sprintf@ap 0030                                 i2I2C_SetCallback@cb 0001  
                           ?_PIN_MANAGER_Initialize 0001                  _EUSART_DefaultFramingErrorCallback 0000  
                               _I2C_DO_SEND_RESTART 2352                                 fp__EUSART_IsTxReady 0000  
                            __end_of_NVM_Initialize 2378                              fp__I2C_DO_ADDRESS_NACK 0000  
                                       Get_days@reg 001D                                     _NVM_StatusClear 238A  
                                      Get_years@reg 001D                             __end_of_I2C_MasterClose 23A2  
                                fp__I2C_DO_TX_EMPTY 0000                                         ??_vfpfcnvrt 001E  
                           __end_of_I2C_MasterStart 239A                            __end_of_EUSART_IsTxReady 20D6  
                           __end_of_I2C_MasterWrite 232A                            __end_of_CLOCK_Initialize 2318  
            __end_of_INTERRUPT_InterruptManagerHigh 00B6                      _INTERRUPT_InterruptManagerHigh 0008  
                            ??_EUSART_ReceiveEnable 0011                                ?_I2C_DO_SEND_RESTART 0001  
                                          sprintf@f 0031                                            sprintf@s 002C  
                                  Get_years@address 001E                    __end_of_INT1_SetInterruptHandler 2304  
                                       _SSPCON1bits 0FC6                                         _SSPCON2bits 0FC5  
                          __end_of_EUSART_Send_Date 164C                                  EUSART_Write@txData 0011  
                          __end_of_EUSART_Send_Temp 1B2E                            __end_of_EUSART_Send_Time 1594  
                           __end_of_I2C_SetCallback 1BFC                      __end_of_PIN_MANAGER_Initialize 1F76  
                                _EUSART_Send_String 18EA                       __end_of_rd1RegCompleteHandler 2082  
                                  fp__I2C_DO_RX_ACK 0000                       __end_of_wr1RegCompleteHandler 202A  
                           Read_Temperature@address 001E                               _MSSP_InterruptHandler 0051  
                              i2_I2C_MasterClearIrq 23A6                                       ??_Get_minutes 001E  
                                     ??_Get_seconds 001E                                     ?_NVM_Initialize 0001  
                               ?_EUSART_Send_String 0015                                     fp__EUSART_Write 0000  
                              Read_Temperature@temp 001F  
